Archive member included because of file (symbol)

contiki-avr-atmega256rfr2.a(servreg-hack.o)
                              unicast-receiver.co (servreg_hack_init)
contiki-avr-atmega256rfr2.a(contiki-main.o)
                              /usr/local/bin/../lib/gcc/avr/4.8.1/../../../../avr/lib/avr6/crtm256rfr2.o (main)
contiki-avr-atmega256rfr2.a(params.o)
                              contiki-avr-atmega256rfr2.a(contiki-main.o) (params_get_channel)
contiki-avr-atmega256rfr2.a(ssd1306.o)
                              contiki-avr-atmega256rfr2.a(contiki-main.o) (ssd1306_init)
contiki-avr-atmega256rfr2.a(clock.o)
                              contiki-avr-atmega256rfr2.a(contiki-main.o) (clock_init)
contiki-avr-atmega256rfr2.a(rs232.o)
                              contiki-avr-atmega256rfr2.a(contiki-main.o) (rs232_init)
contiki-avr-atmega256rfr2.a(watchdog.o)
                              contiki-avr-atmega256rfr2.a(contiki-main.o) (watchdog_periodic)
contiki-avr-atmega256rfr2.a(random.o)
                              contiki-avr-atmega256rfr2.a(contiki-main.o) (random_init)
contiki-avr-atmega256rfr2.a(rf230bb.o)
                              contiki-avr-atmega256rfr2.a(clock.o) (RF230_receive_on)
contiki-avr-atmega256rfr2.a(halbb.o)
                              contiki-avr-atmega256rfr2.a(rf230bb.o) (hal_init)
contiki-avr-atmega256rfr2.a(autostart.o)
                              contiki-avr-atmega256rfr2.a(contiki-main.o) (autostart_start)
contiki-avr-atmega256rfr2.a(ctimer.o)
                              contiki-avr-atmega256rfr2.a(contiki-main.o) (ctimer_init)
contiki-avr-atmega256rfr2.a(energest.o)
                              contiki-avr-atmega256rfr2.a(rf230bb.o) (energest_current_time)
contiki-avr-atmega256rfr2.a(etimer.o)
                              contiki-avr-atmega256rfr2.a(clock.o) (etimer_request_poll)
contiki-avr-atmega256rfr2.a(process.o)
                              contiki-avr-atmega256rfr2.a(servreg-hack.o) (process_current)
contiki-avr-atmega256rfr2.a(rtimer.o)
                              contiki-avr-atmega256rfr2.a(contiki-main.o) (rtimer_init)
contiki-avr-atmega256rfr2.a(timer.o)
                              contiki-avr-atmega256rfr2.a(servreg-hack.o) (timer_set)
contiki-avr-atmega256rfr2.a(list.o)
                              contiki-avr-atmega256rfr2.a(servreg-hack.o) (list_init)
contiki-avr-atmega256rfr2.a(memb.o)
                              contiki-avr-atmega256rfr2.a(servreg-hack.o) (memb_init)
contiki-avr-atmega256rfr2.a(print-stats.o)
                              contiki-avr-atmega256rfr2.a(contiki-main.o) (print_stats)
contiki-avr-atmega256rfr2.a(uip6.o)
                              contiki-avr-atmega256rfr2.a(servreg-hack.o) (uip_appdata)
contiki-avr-atmega256rfr2.a(uip-ds6.o)
                              contiki-avr-atmega256rfr2.a(uip6.o) (uip_ds6_is_addr_onlink)
contiki-avr-atmega256rfr2.a(uip-ds6-nbr.o)
                              contiki-avr-atmega256rfr2.a(contiki-main.o) (ds6_neighbors)
contiki-avr-atmega256rfr2.a(uip-ds6-route.o)
                              contiki-avr-atmega256rfr2.a(uip-ds6.o) (uip_ds6_route_init)
contiki-avr-atmega256rfr2.a(uip-icmp6.o)
                              contiki-avr-atmega256rfr2.a(uip6.o) (uip_icmp6_input)
contiki-avr-atmega256rfr2.a(uip-nd6.o)
                              contiki-avr-atmega256rfr2.a(uip-ds6-nbr.o) (uip_nd6_ns_output)
contiki-avr-atmega256rfr2.a(simple-udp.o)
                              unicast-receiver.co (simple_udp_register)
contiki-avr-atmega256rfr2.a(tcpip.o)
                              contiki-avr-atmega256rfr2.a(servreg-hack.o) (udp_new)
contiki-avr-atmega256rfr2.a(uip-debug.o)
                              unicast-receiver.co (uip_debug_ipaddr_print)
contiki-avr-atmega256rfr2.a(uip-packetqueue)
                              contiki-avr-atmega256rfr2.a(uip-ds6-nbr.o) (uip_packetqueue_new)
contiki-avr-atmega256rfr2.a(uip-split.o)
                              contiki-avr-atmega256rfr2.a(tcpip.o) (uip_split_output)
contiki-avr-atmega256rfr2.a(uip-udp-packet.)
                              contiki-avr-atmega256rfr2.a(servreg-hack.o) (uip_udp_packet_send)
contiki-avr-atmega256rfr2.a(rpl.o)
                              contiki-avr-atmega256rfr2.a(uip-ds6-nbr.o) (rpl_link_neighbor_callback)
contiki-avr-atmega256rfr2.a(rpl-dag.o)
                              contiki-avr-atmega256rfr2.a(rpl.o) (rpl_dag_init)
contiki-avr-atmega256rfr2.a(rpl-ext-header.)
                              contiki-avr-atmega256rfr2.a(uip6.o) (rpl_verify_header)
contiki-avr-atmega256rfr2.a(rpl-icmp6.o)
                              contiki-avr-atmega256rfr2.a(rpl.o) (dao_output_target)
contiki-avr-atmega256rfr2.a(rpl-mrhof.o)
                              contiki-avr-atmega256rfr2.a(rpl.o) (rpl_mrhof)
contiki-avr-atmega256rfr2.a(rpl-timers.o)
                              contiki-avr-atmega256rfr2.a(rpl.o) (rpl_reset_periodic_timer)
contiki-avr-atmega256rfr2.a(nullmac.o)
                              contiki-avr-atmega256rfr2.a(contiki-main.o) (nullmac_driver)
contiki-avr-atmega256rfr2.a(nullrdc.o)
                              contiki-avr-atmega256rfr2.a(contiki-main.o) (nullrdc_driver)
contiki-avr-atmega256rfr2.a(linkaddr.o)
                              contiki-avr-atmega256rfr2.a(uip-ds6-nbr.o) (linkaddr_cmp)
contiki-avr-atmega256rfr2.a(nbr-table.o)
                              contiki-avr-atmega256rfr2.a(uip-ds6-nbr.o) (nbr_table_register)
contiki-avr-atmega256rfr2.a(netstack.o)
                              contiki-avr-atmega256rfr2.a(contiki-main.o) (netstack_init)
contiki-avr-atmega256rfr2.a(packetbuf.o)
                              contiki-avr-atmega256rfr2.a(rf230bb.o) (packetbuf_set_datalen)
contiki-avr-atmega256rfr2.a(queuebuf.o)
                              contiki-avr-atmega256rfr2.a(contiki-main.o) (queuebuf_init)
contiki-avr-atmega256rfr2.a(nullsec.o)
                              contiki-avr-atmega256rfr2.a(nullmac.o) (nullsec_driver)
contiki-avr-atmega256rfr2.a(font.o)
                              contiki-avr-atmega256rfr2.a(ssd1306.o) (font_table)
contiki-avr-atmega256rfr2.a(rtimer-arch.o)
                              contiki-avr-atmega256rfr2.a(rtimer.o) (rtimer_arch_init)
contiki-avr-atmega256rfr2.a(stimer.o)
                              contiki-avr-atmega256rfr2.a(uip-ds6.o) (stimer_set)
contiki-avr-atmega256rfr2.a(sicslowpan.o)
                              contiki-avr-atmega256rfr2.a(netstack.o) (sicslowpan_driver)
contiki-avr-atmega256rfr2.a(framer-802154.o)
                              contiki-avr-atmega256rfr2.a(nullrdc.o) (framer_802154)
contiki-avr-atmega256rfr2.a(framer.o)
                              contiki-avr-atmega256rfr2.a(framer-802154.o) (framer_canonical_create_and_secure)
contiki-avr-atmega256rfr2.a(mac.o)
                              contiki-avr-atmega256rfr2.a(nullrdc.o) (mac_call_sent_callback)
contiki-avr-atmega256rfr2.a(frame802154.o)
                              contiki-avr-atmega256rfr2.a(framer-802154.o) (frame802154_hdrlen)
/usr/local/bin/../lib/gcc/avr/4.8.1/avr6/libgcc.a(_udivmodhi4.o)
                              contiki-avr-atmega256rfr2.a(servreg-hack.o) (__udivmodhi4)
/usr/local/bin/../lib/gcc/avr/4.8.1/avr6/libgcc.a(_divmodhi4.o)
                              contiki-avr-atmega256rfr2.a(nbr-table.o) (__divmodhi4)
/usr/local/bin/../lib/gcc/avr/4.8.1/avr6/libgcc.a(_udivmodsi4.o)
                              contiki-avr-atmega256rfr2.a(contiki-main.o) (__udivmodsi4)
/usr/local/bin/../lib/gcc/avr/4.8.1/avr6/libgcc.a(_exit.o)
                              /usr/local/bin/../lib/gcc/avr/4.8.1/../../../../avr/lib/avr6/crtm256rfr2.o (exit)
/usr/local/bin/../lib/gcc/avr/4.8.1/avr6/libgcc.a(_tablejump.o)
                              contiki-avr-atmega256rfr2.a(uip6.o) (__tablejump2__)
/usr/local/bin/../lib/gcc/avr/4.8.1/avr6/libgcc.a(_copy_data.o)
                              unicast-receiver.co (__do_copy_data)
/usr/local/bin/../lib/gcc/avr/4.8.1/avr6/libgcc.a(_clear_bss.o)
                              unicast-receiver.co (__do_clear_bss)
/usr/local/bin/../lib/gcc/avr/4.8.1/avr6/libgcc.a(_bswapsi2.o)
                              contiki-avr-atmega256rfr2.a(uip6.o) (__bswapsi2)
/usr/local/bin/../lib/gcc/avr/4.8.1/avr6/libgcc.a(_umulhisi3.o)
                              contiki-avr-atmega256rfr2.a(rpl.o) (__umulhisi3)
/usr/local/bin/../lib/gcc/avr/4.8.1/../../../../avr/lib/avr6/libc.a(rand.o)
                              contiki-avr-atmega256rfr2.a(random.o) (rand)
/usr/local/bin/../lib/gcc/avr/4.8.1/../../../../avr/lib/avr6/libc.a(memcmp.o)
                              contiki-avr-atmega256rfr2.a(uip6.o) (memcmp)
/usr/local/bin/../lib/gcc/avr/4.8.1/../../../../avr/lib/avr6/libc.a(memcpy.o)
                              contiki-avr-atmega256rfr2.a(rf230bb.o) (memcpy)
/usr/local/bin/../lib/gcc/avr/4.8.1/../../../../avr/lib/avr6/libc.a(memmove.o)
                              contiki-avr-atmega256rfr2.a(uip6.o) (memmove)
/usr/local/bin/../lib/gcc/avr/4.8.1/../../../../avr/lib/avr6/libc.a(memset.o)
                              contiki-avr-atmega256rfr2.a(memb.o) (memset)
/usr/local/bin/../lib/gcc/avr/4.8.1/../../../../avr/lib/avr6/libc.a(iob.o)
                              contiki-avr-atmega256rfr2.a(rs232.o) (__iob)
/usr/local/bin/../lib/gcc/avr/4.8.1/../../../../avr/lib/avr6/libc.a(printf.o)
                              unicast-receiver.co (printf)
/usr/local/bin/../lib/gcc/avr/4.8.1/../../../../avr/lib/avr6/libc.a(printf_p.o)
                              contiki-avr-atmega256rfr2.a(contiki-main.o) (printf_P)
/usr/local/bin/../lib/gcc/avr/4.8.1/../../../../avr/lib/avr6/libc.a(putchar.o)
                              unicast-receiver.co (putchar)
/usr/local/bin/../lib/gcc/avr/4.8.1/../../../../avr/lib/avr6/libc.a(puts.o)
                              contiki-avr-atmega256rfr2.a(servreg-hack.o) (puts)
/usr/local/bin/../lib/gcc/avr/4.8.1/../../../../avr/lib/avr6/libc.a(vfprintf_std.o)
                              /usr/local/bin/../lib/gcc/avr/4.8.1/../../../../avr/lib/avr6/libc.a(printf.o) (vfprintf)
/usr/local/bin/../lib/gcc/avr/4.8.1/../../../../avr/lib/avr6/libc.a(eerd_block_atmega256rfr2.o)
                              contiki-avr-atmega256rfr2.a(params.o) (__eerd_block_EEPROM_SUFFIX)
/usr/local/bin/../lib/gcc/avr/4.8.1/../../../../avr/lib/avr6/libc.a(eerd_byte_atmega256rfr2.o)
                              contiki-avr-atmega256rfr2.a(params.o) (__eerd_byte_EEPROM_SUFFIX)
/usr/local/bin/../lib/gcc/avr/4.8.1/../../../../avr/lib/avr6/libc.a(eerd_word_atmega256rfr2.o)
                              contiki-avr-atmega256rfr2.a(params.o) (__eerd_word_EEPROM_SUFFIX)
/usr/local/bin/../lib/gcc/avr/4.8.1/../../../../avr/lib/avr6/libc.a(eewr_block_atmega256rfr2.o)
                              contiki-avr-atmega256rfr2.a(params.o) (__eewr_block_EEPROM_SUFFIX)
/usr/local/bin/../lib/gcc/avr/4.8.1/../../../../avr/lib/avr6/libc.a(eewr_byte_atmega256rfr2.o)
                              contiki-avr-atmega256rfr2.a(params.o) (__eewr_byte_EEPROM_SUFFIX)
/usr/local/bin/../lib/gcc/avr/4.8.1/../../../../avr/lib/avr6/libc.a(eewr_word_atmega256rfr2.o)
                              contiki-avr-atmega256rfr2.a(params.o) (__eewr_word_EEPROM_SUFFIX)
/usr/local/bin/../lib/gcc/avr/4.8.1/../../../../avr/lib/avr6/libc.a(strnlen_P.o)
                              /usr/local/bin/../lib/gcc/avr/4.8.1/../../../../avr/lib/avr6/libc.a(vfprintf_std.o) (strnlen_P)
/usr/local/bin/../lib/gcc/avr/4.8.1/../../../../avr/lib/avr6/libc.a(strnlen.o)
                              /usr/local/bin/../lib/gcc/avr/4.8.1/../../../../avr/lib/avr6/libc.a(vfprintf_std.o) (strnlen)
/usr/local/bin/../lib/gcc/avr/4.8.1/../../../../avr/lib/avr6/libc.a(fputc.o)
                              /usr/local/bin/../lib/gcc/avr/4.8.1/../../../../avr/lib/avr6/libc.a(putchar.o) (fputc)
/usr/local/bin/../lib/gcc/avr/4.8.1/../../../../avr/lib/avr6/libc.a(ultoa_invert.o)
                              /usr/local/bin/../lib/gcc/avr/4.8.1/../../../../avr/lib/avr6/libc.a(vfprintf_std.o) (__ultoa_invert)
/usr/local/bin/../lib/gcc/avr/4.8.1/avr6/libgcc.a(_divmodsi4.o)
                              /usr/local/bin/../lib/gcc/avr/4.8.1/../../../../avr/lib/avr6/libc.a(rand.o) (__divmodsi4)
/usr/local/bin/../lib/gcc/avr/4.8.1/avr6/libgcc.a(_negsi2.o)
                              /usr/local/bin/../lib/gcc/avr/4.8.1/avr6/libgcc.a(_divmodsi4.o) (__negsi2)
/usr/local/bin/../lib/gcc/avr/4.8.1/avr6/libgcc.a(_muluhisi3.o)
                              /usr/local/bin/../lib/gcc/avr/4.8.1/../../../../avr/lib/avr6/libc.a(rand.o) (__muluhisi3)
/usr/local/bin/../lib/gcc/avr/4.8.1/avr6/libgcc.a(_mulshisi3.o)
                              /usr/local/bin/../lib/gcc/avr/4.8.1/../../../../avr/lib/avr6/libc.a(rand.o) (__mulohisi3)

Allocating common symbols
Common symbol       size              file

energest_total_time
                    0x30              contiki-avr-atmega256rfr2.a(energest.o)
uip_ds6_timer_ra    0x8               contiki-avr-atmega256rfr2.a(uip-ds6.o)
rf230_last_correlation
                    0x1               contiki-avr-atmega256rfr2.a(rf230bb.o)
rf230_last_rssi     0x1               contiki-avr-atmega256rfr2.a(rf230bb.o)
uip_ds6_if          0x11b             contiki-avr-atmega256rfr2.a(uip-ds6.o)
uip_ds6_netif_addr_list_offset
                    0x1               contiki-avr-atmega256rfr2.a(uip-ds6.o)
uip_len             0x2               contiki-avr-atmega256rfr2.a(uip6.o)
RF230_receivefail   0x2               contiki-avr-atmega256rfr2.a(rf230bb.o)
energest_total_count
                    0x2               contiki-avr-atmega256rfr2.a(energest.o)
input_handler_1     0x2               contiki-avr-atmega256rfr2.a(rs232.o)
uip_ds6_addr_size   0x1               contiki-avr-atmega256rfr2.a(uip-ds6.o)
uip_sappdata        0x2               contiki-avr-atmega256rfr2.a(uip6.o)
energest_current_mode
                    0xc               contiki-avr-atmega256rfr2.a(energest.o)
packetbuf_addrs     0x20              contiki-avr-atmega256rfr2.a(packetbuf.o)
uip_acc32           0x4               contiki-avr-atmega256rfr2.a(uip6.o)
uip_ds6_prefix_list
                    0x70              contiki-avr-atmega256rfr2.a(uip-ds6.o)
frag_sender         0x8               contiki-avr-atmega256rfr2.a(sicslowpan.o)
uip_lladdr          0x8               contiki-avr-atmega256rfr2.a(uip6.o)
uip_aligned_buf     0xf0              contiki-avr-atmega256rfr2.a(uip6.o)
uip_flags           0x1               contiki-avr-atmega256rfr2.a(uip6.o)
uip_ds6_timer_periodic
                    0x8               contiki-avr-atmega256rfr2.a(uip-ds6.o)
ledtimer            0x2               contiki-avr-atmega256rfr2.a(contiki-main.o)
rf230_smallest_rssi
                    0x1               contiki-avr-atmega256rfr2.a(rf230bb.o)
uip_next_hdr        0x2               contiki-avr-atmega256rfr2.a(uip6.o)
linkaddr_node_addr  0x8               contiki-avr-atmega256rfr2.a(linkaddr.o)
default_instance    0x2               contiki-avr-atmega256rfr2.a(rpl-dag.o)
rf230_pending       0x1               contiki-avr-atmega256rfr2.a(rf230bb.o)
uip_udp_conn        0x2               contiki-avr-atmega256rfr2.a(uip6.o)
rf230_ccawait       0x1               contiki-avr-atmega256rfr2.a(rf230bb.o)
RF230_receivepackets
                    0x2               contiki-avr-atmega256rfr2.a(rf230bb.o)
packetbuf_attrs     0x34              contiki-avr-atmega256rfr2.a(packetbuf.o)
rf230_txendwait     0x1               contiki-avr-atmega256rfr2.a(rf230bb.o)
instance_table      0xb6              contiki-avr-atmega256rfr2.a(rpl-dag.o)
radioontime         0x4               contiki-avr-atmega256rfr2.a(clock.o)
uip_appdata         0x2               contiki-avr-atmega256rfr2.a(uip6.o)
uip_conn            0x2               contiki-avr-atmega256rfr2.a(uip6.o)
rxframe_tail        0x1               contiki-avr-atmega256rfr2.a(rf230bb.o)
tcpip_event         0x1               contiki-avr-atmega256rfr2.a(tcpip.o)
uip_conns           0xb0              contiki-avr-atmega256rfr2.a(uip6.o)
uip_icmp6_conns     0x4               contiki-avr-atmega256rfr2.a(uip6.o)
rxframe_head        0x1               contiki-avr-atmega256rfr2.a(rf230bb.o)
rxframe             0x186             contiki-avr-atmega256rfr2.a(rf230bb.o)
rf230_wakewait      0x1               contiki-avr-atmega256rfr2.a(rf230bb.o)
sleepseconds        0x4               contiki-avr-atmega256rfr2.a(clock.o)
seconds             0x4               contiki-avr-atmega256rfr2.a(clock.o)
input_handler_0     0x2               contiki-avr-atmega256rfr2.a(rs232.o)
RF230_sendpackets   0x2               contiki-avr-atmega256rfr2.a(rf230bb.o)
uip_listenports     0x8               contiki-avr-atmega256rfr2.a(uip6.o)
RF230_sendfail      0x2               contiki-avr-atmega256rfr2.a(rf230bb.o)
energest_current_time
                    0x18              contiki-avr-atmega256rfr2.a(energest.o)
clocktime           0x4               contiki-avr-atmega256rfr2.a(contiki-main.o)
RF230_receive_on    0x1               contiki-avr-atmega256rfr2.a(rf230bb.o)
__iob               0x6               /usr/local/bin/../lib/gcc/avr/4.8.1/../../../../avr/lib/avr6/libc.a(iob.o)
tcpip_icmp6_event   0x1               contiki-avr-atmega256rfr2.a(tcpip.o)
uip_slen            0x2               contiki-avr-atmega256rfr2.a(uip6.o)
uip_udp_conns       0xfa              contiki-avr-atmega256rfr2.a(uip6.o)

Discarded input sections

 .data          0x00000000        0x0 /usr/local/bin/../lib/gcc/avr/4.8.1/../../../../avr/lib/avr6/crtm256rfr2.o
 .bss           0x00000000        0x0 /usr/local/bin/../lib/gcc/avr/4.8.1/../../../../avr/lib/avr6/crtm256rfr2.o
 .text          0x00000000        0x0 unicast-receiver.co
 .data          0x00000000        0x0 unicast-receiver.co
 .bss           0x00000000        0x0 unicast-receiver.co
 .text          0x00000000        0x0 contiki-avr-atmega256rfr2.a(servreg-hack.o)
 .data          0x00000000        0x0 contiki-avr-atmega256rfr2.a(servreg-hack.o)
 .bss           0x00000000        0x0 contiki-avr-atmega256rfr2.a(servreg-hack.o)
 .text.servreg_hack_item_id
                0x00000000        0x6 contiki-avr-atmega256rfr2.a(servreg-hack.o)
 .text.servreg_hack_item_address
                0x00000000        0x4 contiki-avr-atmega256rfr2.a(servreg-hack.o)
 .text.servreg_hack_lookup
                0x00000000       0x2e contiki-avr-atmega256rfr2.a(servreg-hack.o)
 .text          0x00000000        0x0 contiki-avr-atmega256rfr2.a(contiki-main.o)
 .data          0x00000000        0x0 contiki-avr-atmega256rfr2.a(contiki-main.o)
 .bss           0x00000000        0x0 contiki-avr-atmega256rfr2.a(contiki-main.o)
 .text.log_message
                0x00000000       0x22 contiki-avr-atmega256rfr2.a(contiki-main.o)
 .progmem.data.__c.4744
                0x00000000        0x6 contiki-avr-atmega256rfr2.a(contiki-main.o)
 .text          0x00000000        0x0 contiki-avr-atmega256rfr2.a(params.o)
 .data          0x00000000        0x0 contiki-avr-atmega256rfr2.a(params.o)
 .bss           0x00000000        0x0 contiki-avr-atmega256rfr2.a(params.o)
 .text          0x00000000        0x0 contiki-avr-atmega256rfr2.a(ssd1306.o)
 .data          0x00000000        0x0 contiki-avr-atmega256rfr2.a(ssd1306.o)
 .bss           0x00000000        0x0 contiki-avr-atmega256rfr2.a(ssd1306.o)
 .text.ssd1306_sel_data
                0x00000000        0x6 contiki-avr-atmega256rfr2.a(ssd1306.o)
 .text.ssd1306_write_data
                0x00000000       0x2c contiki-avr-atmega256rfr2.a(ssd1306.o)
 .text.ssd1306_read_data
                0x00000000        0x4 contiki-avr-atmega256rfr2.a(ssd1306.o)
 .text.ssd1306_get_status
                0x00000000        0x4 contiki-avr-atmega256rfr2.a(ssd1306.o)
 .text.ssd1306_sleep_enable
                0x00000000        0x6 contiki-avr-atmega256rfr2.a(ssd1306.o)
 .text.ssd1306_sleep_disable
                0x00000000        0x6 contiki-avr-atmega256rfr2.a(ssd1306.o)
 .text.ssd1306_set_page_address
                0x00000000        0x8 contiki-avr-atmega256rfr2.a(ssd1306.o)
 .text.ssd1306_set_column_address
                0x00000000       0x1a contiki-avr-atmega256rfr2.a(ssd1306.o)
 .text.ssd1306_set_display_start_line_address
                0x00000000        0x8 contiki-avr-atmega256rfr2.a(ssd1306.o)
 .text.ssd1306_display_off
                0x00000000        0x6 contiki-avr-atmega256rfr2.a(ssd1306.o)
 .text.ssd1306_display_invert_enable
                0x00000000        0x6 contiki-avr-atmega256rfr2.a(ssd1306.o)
 .text.ssd1306_clear
                0x00000000       0x2c contiki-avr-atmega256rfr2.a(ssd1306.o)
 .text.ssd1306_write_text
                0x00000000       0x5a contiki-avr-atmega256rfr2.a(ssd1306.o)
 .text          0x00000000        0x0 contiki-avr-atmega256rfr2.a(clock.o)
 .data          0x00000000        0x0 contiki-avr-atmega256rfr2.a(clock.o)
 .bss           0x00000000        0x0 contiki-avr-atmega256rfr2.a(clock.o)
 .text.clock_set_seconds
                0x00000000       0x12 contiki-avr-atmega256rfr2.a(clock.o)
 .text.clock_wait
                0x00000000       0x20 contiki-avr-atmega256rfr2.a(clock.o)
 .text.clock_delay_msec
                0x00000000       0x20 contiki-avr-atmega256rfr2.a(clock.o)
 .text.clock_adjust_ticks
                0x00000000       0xbe contiki-avr-atmega256rfr2.a(clock.o)
 .text          0x00000000        0x0 contiki-avr-atmega256rfr2.a(rs232.o)
 .data          0x00000000        0x0 contiki-avr-atmega256rfr2.a(rs232.o)
 .bss           0x00000000        0x0 contiki-avr-atmega256rfr2.a(rs232.o)
 .text.rs232_set_input
                0x00000000       0x1c contiki-avr-atmega256rfr2.a(rs232.o)
 .text.rs232_print
                0x00000000       0x32 contiki-avr-atmega256rfr2.a(rs232.o)
 .text.slip_arch_writeb
                0x00000000        0x8 contiki-avr-atmega256rfr2.a(rs232.o)
 .text          0x00000000        0x0 contiki-avr-atmega256rfr2.a(watchdog.o)
 .data          0x00000000        0x0 contiki-avr-atmega256rfr2.a(watchdog.o)
 .bss           0x00000000        0x0 contiki-avr-atmega256rfr2.a(watchdog.o)
 .text.watchdog_init
                0x00000000       0x18 contiki-avr-atmega256rfr2.a(watchdog.o)
 .text.watchdog_start
                0x00000000       0x18 contiki-avr-atmega256rfr2.a(watchdog.o)
 .text.watchdog_stop
                0x00000000       0x12 contiki-avr-atmega256rfr2.a(watchdog.o)
 .text.watchdog_reboot
                0x00000000       0x1a contiki-avr-atmega256rfr2.a(watchdog.o)
 .text          0x00000000        0x0 contiki-avr-atmega256rfr2.a(random.o)
 .data          0x00000000        0x0 contiki-avr-atmega256rfr2.a(random.o)
 .bss           0x00000000        0x0 contiki-avr-atmega256rfr2.a(random.o)
 .text          0x00000000        0x0 contiki-avr-atmega256rfr2.a(rf230bb.o)
 .data          0x00000000        0x0 contiki-avr-atmega256rfr2.a(rf230bb.o)
 .bss           0x00000000        0x0 contiki-avr-atmega256rfr2.a(rf230bb.o)
 .text.rf230_set_promiscuous_mode
                0x00000000        0x6 contiki-avr-atmega256rfr2.a(rf230bb.o)
 .text.rf230_is_ready_to_send
                0x00000000       0x14 contiki-avr-atmega256rfr2.a(rf230bb.o)
 .text.rf230_setpendingbit
                0x00000000        0xe contiki-avr-atmega256rfr2.a(rf230bb.o)
 .text.rf230_listen_channel
                0x00000000        0xa contiki-avr-atmega256rfr2.a(rf230bb.o)
 .text.rf230_get_raw_rssi
                0x00000000       0x48 contiki-avr-atmega256rfr2.a(rf230bb.o)
 .bss.is_promiscuous
                0x00000000        0x1 contiki-avr-atmega256rfr2.a(rf230bb.o)
 .text          0x00000000        0x0 contiki-avr-atmega256rfr2.a(halbb.o)
 .data          0x00000000        0x0 contiki-avr-atmega256rfr2.a(halbb.o)
 .bss           0x00000000        0x0 contiki-avr-atmega256rfr2.a(halbb.o)
 .text          0x00000000        0x0 contiki-avr-atmega256rfr2.a(autostart.o)
 .data          0x00000000        0x0 contiki-avr-atmega256rfr2.a(autostart.o)
 .bss           0x00000000        0x0 contiki-avr-atmega256rfr2.a(autostart.o)
 .text.autostart_exit
                0x00000000       0x1a contiki-avr-atmega256rfr2.a(autostart.o)
 .text          0x00000000        0x0 contiki-avr-atmega256rfr2.a(ctimer.o)
 .data          0x00000000        0x0 contiki-avr-atmega256rfr2.a(ctimer.o)
 .bss           0x00000000        0x0 contiki-avr-atmega256rfr2.a(ctimer.o)
 .text.ctimer_restart
                0x00000000       0x48 contiki-avr-atmega256rfr2.a(ctimer.o)
 .text.ctimer_expired
                0x00000000       0x44 contiki-avr-atmega256rfr2.a(ctimer.o)
 .text          0x00000000        0x0 contiki-avr-atmega256rfr2.a(energest.o)
 .data          0x00000000        0x0 contiki-avr-atmega256rfr2.a(energest.o)
 .bss           0x00000000        0x0 contiki-avr-atmega256rfr2.a(energest.o)
 .text.energest_init
                0x00000000       0x2c contiki-avr-atmega256rfr2.a(energest.o)
 .text.energest_type_time
                0x00000000       0x6e contiki-avr-atmega256rfr2.a(energest.o)
 .text.energest_leveldevice_leveltime
                0x00000000        0x8 contiki-avr-atmega256rfr2.a(energest.o)
 .text.energest_type_set
                0x00000000       0x18 contiki-avr-atmega256rfr2.a(energest.o)
 .text.energest_flush
                0x00000000       0x5a contiki-avr-atmega256rfr2.a(energest.o)
 .text          0x00000000        0x0 contiki-avr-atmega256rfr2.a(etimer.o)
 .data          0x00000000        0x0 contiki-avr-atmega256rfr2.a(etimer.o)
 .bss           0x00000000        0x0 contiki-avr-atmega256rfr2.a(etimer.o)
 .text.etimer_adjust
                0x00000000       0x12 contiki-avr-atmega256rfr2.a(etimer.o)
 .text.etimer_start_time
                0x00000000        0x8 contiki-avr-atmega256rfr2.a(etimer.o)
 .text.etimer_next_expiration_time
                0x00000000       0x1c contiki-avr-atmega256rfr2.a(etimer.o)
 .text          0x00000000        0x0 contiki-avr-atmega256rfr2.a(process.o)
 .data          0x00000000        0x0 contiki-avr-atmega256rfr2.a(process.o)
 .bss           0x00000000        0x0 contiki-avr-atmega256rfr2.a(process.o)
 .text.process_exit
                0x00000000        0xc contiki-avr-atmega256rfr2.a(process.o)
 .text.process_nevents
                0x00000000       0x10 contiki-avr-atmega256rfr2.a(process.o)
 .text.process_is_running
                0x00000000       0x14 contiki-avr-atmega256rfr2.a(process.o)
 .text          0x00000000        0x0 contiki-avr-atmega256rfr2.a(rtimer.o)
 .data          0x00000000        0x0 contiki-avr-atmega256rfr2.a(rtimer.o)
 .bss           0x00000000        0x0 contiki-avr-atmega256rfr2.a(rtimer.o)
 .text.rtimer_set
                0x00000000       0x36 contiki-avr-atmega256rfr2.a(rtimer.o)
 .text.rtimer_reset
                0x00000000       0x22 contiki-avr-atmega256rfr2.a(rtimer.o)
 .text          0x00000000        0x0 contiki-avr-atmega256rfr2.a(timer.o)
 .data          0x00000000        0x0 contiki-avr-atmega256rfr2.a(timer.o)
 .bss           0x00000000        0x0 contiki-avr-atmega256rfr2.a(timer.o)
 .text.timer_remaining
                0x00000000       0x24 contiki-avr-atmega256rfr2.a(timer.o)
 .text          0x00000000        0x0 contiki-avr-atmega256rfr2.a(list.o)
 .data          0x00000000        0x0 contiki-avr-atmega256rfr2.a(list.o)
 .bss           0x00000000        0x0 contiki-avr-atmega256rfr2.a(list.o)
 .text.list_copy
                0x00000000        0xe contiki-avr-atmega256rfr2.a(list.o)
 .text.list_chop
                0x00000000       0x3c contiki-avr-atmega256rfr2.a(list.o)
 .text.list_pop
                0x00000000       0x18 contiki-avr-atmega256rfr2.a(list.o)
 .text.list_insert
                0x00000000       0x1c contiki-avr-atmega256rfr2.a(list.o)
 .text          0x00000000        0x0 contiki-avr-atmega256rfr2.a(memb.o)
 .data          0x00000000        0x0 contiki-avr-atmega256rfr2.a(memb.o)
 .bss           0x00000000        0x0 contiki-avr-atmega256rfr2.a(memb.o)
 .text          0x00000000        0x0 contiki-avr-atmega256rfr2.a(print-stats.o)
 .data          0x00000000        0x0 contiki-avr-atmega256rfr2.a(print-stats.o)
 .bss           0x00000000        0x0 contiki-avr-atmega256rfr2.a(print-stats.o)
 .text          0x00000000        0x0 contiki-avr-atmega256rfr2.a(uip6.o)
 .data          0x00000000        0x0 contiki-avr-atmega256rfr2.a(uip6.o)
 .bss           0x00000000        0x0 contiki-avr-atmega256rfr2.a(uip6.o)
 .text.uip_chksum
                0x00000000       0x14 contiki-avr-atmega256rfr2.a(uip6.o)
 .text.uip_connect
                0x00000000      0x110 contiki-avr-atmega256rfr2.a(uip6.o)
 .text.uip_listen
                0x00000000       0x32 contiki-avr-atmega256rfr2.a(uip6.o)
 .text.uip_htons
                0x00000000        0x8 contiki-avr-atmega256rfr2.a(uip6.o)
 .text.uip_send
                0x00000000       0x52 contiki-avr-atmega256rfr2.a(uip6.o)
 .text          0x00000000        0x0 contiki-avr-atmega256rfr2.a(uip-ds6.o)
 .data          0x00000000        0x0 contiki-avr-atmega256rfr2.a(uip-ds6.o)
 .bss           0x00000000        0x0 contiki-avr-atmega256rfr2.a(uip-ds6.o)
 .text.uip_ds6_prefix_rm
                0x00000000        0xa contiki-avr-atmega256rfr2.a(uip-ds6.o)
 .text.uip_ds6_prefix_lookup
                0x00000000       0x3a contiki-avr-atmega256rfr2.a(uip-ds6.o)
 .text.uip_ds6_get_global
                0x00000000       0x5a contiki-avr-atmega256rfr2.a(uip-ds6.o)
 .text.uip_ds6_aaddr_add
                0x00000000       0x64 contiki-avr-atmega256rfr2.a(uip-ds6.o)
 .text.uip_ds6_aaddr_rm
                0x00000000        0xa contiki-avr-atmega256rfr2.a(uip-ds6.o)
 .text.uip_ds6_aaddr_lookup
                0x00000000       0x3a contiki-avr-atmega256rfr2.a(uip-ds6.o)
 .bss.locaaddr  0x00000000        0x2 contiki-avr-atmega256rfr2.a(uip-ds6.o)
 .text          0x00000000        0x0 contiki-avr-atmega256rfr2.a(uip-ds6-nbr.o)
 .data          0x00000000        0x0 contiki-avr-atmega256rfr2.a(uip-ds6-nbr.o)
 .bss           0x00000000        0x0 contiki-avr-atmega256rfr2.a(uip-ds6-nbr.o)
 .text.uip_ds6_nbr_get_ipaddr
                0x00000000        0x2 contiki-avr-atmega256rfr2.a(uip-ds6-nbr.o)
 .text.uip_ds6_nbr_num
                0x00000000       0x32 contiki-avr-atmega256rfr2.a(uip-ds6-nbr.o)
 .text.uip_ds6_get_least_lifetime_neighbor
                0x00000000       0x82 contiki-avr-atmega256rfr2.a(uip-ds6-nbr.o)
 .text          0x00000000        0x0 contiki-avr-atmega256rfr2.a(uip-ds6-route.o)
 .data          0x00000000        0x0 contiki-avr-atmega256rfr2.a(uip-ds6-route.o)
 .bss           0x00000000        0x0 contiki-avr-atmega256rfr2.a(uip-ds6-route.o)
 .text.uip_ds6_notification_add
                0x00000000       0x1c contiki-avr-atmega256rfr2.a(uip-ds6-route.o)
 .text.uip_ds6_notification_rm
                0x00000000        0xa contiki-avr-atmega256rfr2.a(uip-ds6-route.o)
 .text.uip_ds6_route_num_routes
                0x00000000        0xa contiki-avr-atmega256rfr2.a(uip-ds6-route.o)
 .text.uip_ds6_route_rm_by_nexthop
                0x00000000       0x12 contiki-avr-atmega256rfr2.a(uip-ds6-route.o)
 .text          0x00000000        0x0 contiki-avr-atmega256rfr2.a(uip-icmp6.o)
 .data          0x00000000        0x0 contiki-avr-atmega256rfr2.a(uip-icmp6.o)
 .bss           0x00000000        0x0 contiki-avr-atmega256rfr2.a(uip-icmp6.o)
 .text.uip_icmp6_echo_reply_callback_add
                0x00000000       0x1c contiki-avr-atmega256rfr2.a(uip-icmp6.o)
 .text.uip_icmp6_echo_reply_callback_rm
                0x00000000        0xa contiki-avr-atmega256rfr2.a(uip-icmp6.o)
 .text          0x00000000        0x0 contiki-avr-atmega256rfr2.a(uip-nd6.o)
 .data          0x00000000        0x0 contiki-avr-atmega256rfr2.a(uip-nd6.o)
 .bss           0x00000000        0x0 contiki-avr-atmega256rfr2.a(uip-nd6.o)
 .text          0x00000000        0x0 contiki-avr-atmega256rfr2.a(simple-udp.o)
 .data          0x00000000        0x0 contiki-avr-atmega256rfr2.a(simple-udp.o)
 .bss           0x00000000        0x0 contiki-avr-atmega256rfr2.a(simple-udp.o)
 .text.simple_udp_send
                0x00000000       0x2c contiki-avr-atmega256rfr2.a(simple-udp.o)
 .text.simple_udp_sendto
                0x00000000       0x26 contiki-avr-atmega256rfr2.a(simple-udp.o)
 .text.simple_udp_sendto_port
                0x00000000       0x22 contiki-avr-atmega256rfr2.a(simple-udp.o)
 .text          0x00000000        0x0 contiki-avr-atmega256rfr2.a(tcpip.o)
 .data          0x00000000        0x0 contiki-avr-atmega256rfr2.a(tcpip.o)
 .bss           0x00000000        0x0 contiki-avr-atmega256rfr2.a(tcpip.o)
 .text.tcp_unlisten
                0x00000000       0x3e contiki-avr-atmega256rfr2.a(tcpip.o)
 .text.tcp_listen
                0x00000000       0x3a contiki-avr-atmega256rfr2.a(tcpip.o)
 .text.tcp_attach
                0x00000000       0x14 contiki-avr-atmega256rfr2.a(tcpip.o)
 .text.udp_attach
                0x00000000       0x14 contiki-avr-atmega256rfr2.a(tcpip.o)
 .text.icmp6_new
                0x00000000       0x2c contiki-avr-atmega256rfr2.a(tcpip.o)
 .text.tcpip_poll_udp
                0x00000000        0xc contiki-avr-atmega256rfr2.a(tcpip.o)
 .text.tcpip_poll_tcp
                0x00000000        0xc contiki-avr-atmega256rfr2.a(tcpip.o)
 .text.tcp_connect
                0x00000000       0x36 contiki-avr-atmega256rfr2.a(tcpip.o)
 .bss.i.4417    0x00000000        0x1 contiki-avr-atmega256rfr2.a(tcpip.o)
 .bss.i.4409    0x00000000        0x1 contiki-avr-atmega256rfr2.a(tcpip.o)
 .text          0x00000000        0x0 contiki-avr-atmega256rfr2.a(uip-debug.o)
 .data          0x00000000        0x0 contiki-avr-atmega256rfr2.a(uip-debug.o)
 .bss           0x00000000        0x0 contiki-avr-atmega256rfr2.a(uip-debug.o)
 .text.uip_debug_lladdr_print
                0x00000000       0x64 contiki-avr-atmega256rfr2.a(uip-debug.o)
 .progmem.data.__c.2446
                0x00000000        0x5 contiki-avr-atmega256rfr2.a(uip-debug.o)
 .progmem.data.__c.2444
                0x00000000        0x2 contiki-avr-atmega256rfr2.a(uip-debug.o)
 .text          0x00000000        0x0 contiki-avr-atmega256rfr2.a(uip-packetqueue)
 .data          0x00000000        0x0 contiki-avr-atmega256rfr2.a(uip-packetqueue)
 .bss           0x00000000        0x0 contiki-avr-atmega256rfr2.a(uip-packetqueue)
 .text          0x00000000        0x0 contiki-avr-atmega256rfr2.a(uip-split.o)
 .data          0x00000000        0x0 contiki-avr-atmega256rfr2.a(uip-split.o)
 .bss           0x00000000        0x0 contiki-avr-atmega256rfr2.a(uip-split.o)
 .text          0x00000000        0x0 contiki-avr-atmega256rfr2.a(uip-udp-packet.)
 .data          0x00000000        0x0 contiki-avr-atmega256rfr2.a(uip-udp-packet.)
 .bss           0x00000000        0x0 contiki-avr-atmega256rfr2.a(uip-udp-packet.)
 .text.uip_udp_packet_sendto
                0x00000000       0x8c contiki-avr-atmega256rfr2.a(uip-udp-packet.)
 .text          0x00000000        0x0 contiki-avr-atmega256rfr2.a(rpl.o)
 .data          0x00000000        0x0 contiki-avr-atmega256rfr2.a(rpl.o)
 .bss           0x00000000        0x0 contiki-avr-atmega256rfr2.a(rpl.o)
 .text.rpl_set_mode
                0x00000000       0x4e contiki-avr-atmega256rfr2.a(rpl.o)
 .text          0x00000000        0x0 contiki-avr-atmega256rfr2.a(rpl-dag.o)
 .data          0x00000000        0x0 contiki-avr-atmega256rfr2.a(rpl-dag.o)
 .bss           0x00000000        0x0 contiki-avr-atmega256rfr2.a(rpl-dag.o)
 .text.rpl_get_parent_rank
                0x00000000       0x1c contiki-avr-atmega256rfr2.a(rpl-dag.o)
 .text.rpl_get_parent_link_metric
                0x00000000       0x20 contiki-avr-atmega256rfr2.a(rpl-dag.o)
 .text.rpl_set_default_instance
                0x00000000        0xa contiki-avr-atmega256rfr2.a(rpl-dag.o)
 .text          0x00000000        0x0 contiki-avr-atmega256rfr2.a(rpl-ext-header.)
 .data          0x00000000        0x0 contiki-avr-atmega256rfr2.a(rpl-ext-header.)
 .bss           0x00000000        0x0 contiki-avr-atmega256rfr2.a(rpl-ext-header.)
 .text.rpl_remove_header
                0x00000000       0x5e contiki-avr-atmega256rfr2.a(rpl-ext-header.)
 .text          0x00000000        0x0 contiki-avr-atmega256rfr2.a(rpl-icmp6.o)
 .data          0x00000000        0x0 contiki-avr-atmega256rfr2.a(rpl-icmp6.o)
 .bss           0x00000000        0x0 contiki-avr-atmega256rfr2.a(rpl-icmp6.o)
 .text          0x00000000        0x0 contiki-avr-atmega256rfr2.a(rpl-mrhof.o)
 .data          0x00000000        0x0 contiki-avr-atmega256rfr2.a(rpl-mrhof.o)
 .bss           0x00000000        0x0 contiki-avr-atmega256rfr2.a(rpl-mrhof.o)
 .text          0x00000000        0x0 contiki-avr-atmega256rfr2.a(rpl-timers.o)
 .data          0x00000000        0x0 contiki-avr-atmega256rfr2.a(rpl-timers.o)
 .bss           0x00000000        0x0 contiki-avr-atmega256rfr2.a(rpl-timers.o)
 .text.rpl_schedule_dao_immediately
                0x00000000        0x8 contiki-avr-atmega256rfr2.a(rpl-timers.o)
 .text.rpl_cancel_dao
                0x00000000       0x1c contiki-avr-atmega256rfr2.a(rpl-timers.o)
 .text          0x00000000        0x0 contiki-avr-atmega256rfr2.a(nullmac.o)
 .data          0x00000000        0x0 contiki-avr-atmega256rfr2.a(nullmac.o)
 .bss           0x00000000        0x0 contiki-avr-atmega256rfr2.a(nullmac.o)
 .text          0x00000000        0x0 contiki-avr-atmega256rfr2.a(nullrdc.o)
 .data          0x00000000        0x0 contiki-avr-atmega256rfr2.a(nullrdc.o)
 .bss           0x00000000        0x0 contiki-avr-atmega256rfr2.a(nullrdc.o)
 .text          0x00000000        0x0 contiki-avr-atmega256rfr2.a(linkaddr.o)
 .data          0x00000000        0x0 contiki-avr-atmega256rfr2.a(linkaddr.o)
 .bss           0x00000000        0x0 contiki-avr-atmega256rfr2.a(linkaddr.o)
 .text          0x00000000        0x0 contiki-avr-atmega256rfr2.a(nbr-table.o)
 .data          0x00000000        0x0 contiki-avr-atmega256rfr2.a(nbr-table.o)
 .bss           0x00000000        0x0 contiki-avr-atmega256rfr2.a(nbr-table.o)
 .text          0x00000000        0x0 contiki-avr-atmega256rfr2.a(netstack.o)
 .data          0x00000000        0x0 contiki-avr-atmega256rfr2.a(netstack.o)
 .bss           0x00000000        0x0 contiki-avr-atmega256rfr2.a(netstack.o)
 .text          0x00000000        0x0 contiki-avr-atmega256rfr2.a(packetbuf.o)
 .data          0x00000000        0x0 contiki-avr-atmega256rfr2.a(packetbuf.o)
 .bss           0x00000000        0x0 contiki-avr-atmega256rfr2.a(packetbuf.o)
 .text.packetbuf_clear_hdr
                0x00000000        0x8 contiki-avr-atmega256rfr2.a(packetbuf.o)
 .text.packetbuf_hdr_remove
                0x00000000        0xc contiki-avr-atmega256rfr2.a(packetbuf.o)
 .text.packetbuf_reference
                0x00000000       0x2a contiki-avr-atmega256rfr2.a(packetbuf.o)
 .text          0x00000000        0x0 contiki-avr-atmega256rfr2.a(queuebuf.o)
 .data          0x00000000        0x0 contiki-avr-atmega256rfr2.a(queuebuf.o)
 .bss           0x00000000        0x0 contiki-avr-atmega256rfr2.a(queuebuf.o)
 .text.queuebuf_update_attr_from_packetbuf
                0x00000000       0x14 contiki-avr-atmega256rfr2.a(queuebuf.o)
 .text.queuebuf_update_from_packetbuf
                0x00000000       0x2e contiki-avr-atmega256rfr2.a(queuebuf.o)
 .text.queuebuf_dataptr
                0x00000000       0x38 contiki-avr-atmega256rfr2.a(queuebuf.o)
 .text.queuebuf_datalen
                0x00000000       0x10 contiki-avr-atmega256rfr2.a(queuebuf.o)
 .text.queuebuf_addr
                0x00000000       0x18 contiki-avr-atmega256rfr2.a(queuebuf.o)
 .text.queuebuf_attr
                0x00000000       0x1c contiki-avr-atmega256rfr2.a(queuebuf.o)
 .text.queuebuf_debug_print
                0x00000000        0x2 contiki-avr-atmega256rfr2.a(queuebuf.o)
 .text          0x00000000        0x0 contiki-avr-atmega256rfr2.a(nullsec.o)
 .data          0x00000000        0x0 contiki-avr-atmega256rfr2.a(nullsec.o)
 .bss           0x00000000        0x0 contiki-avr-atmega256rfr2.a(nullsec.o)
 .text          0x00000000        0x0 contiki-avr-atmega256rfr2.a(font.o)
 .data          0x00000000        0x0 contiki-avr-atmega256rfr2.a(font.o)
 .bss           0x00000000        0x0 contiki-avr-atmega256rfr2.a(font.o)
 .data.Font08px_126
                0x00000000        0x6 contiki-avr-atmega256rfr2.a(font.o)
 .data.Font08px_125
                0x00000000        0x4 contiki-avr-atmega256rfr2.a(font.o)
 .data.Font08px_124
                0x00000000        0x2 contiki-avr-atmega256rfr2.a(font.o)
 .data.Font08px_123
                0x00000000        0x4 contiki-avr-atmega256rfr2.a(font.o)
 .data.Font08px_lz
                0x00000000        0x4 contiki-avr-atmega256rfr2.a(font.o)
 .data.Font08px_ly
                0x00000000        0x5 contiki-avr-atmega256rfr2.a(font.o)
 .data.Font08px_lx
                0x00000000        0x6 contiki-avr-atmega256rfr2.a(font.o)
 .data.Font08px_lw
                0x00000000        0x6 contiki-avr-atmega256rfr2.a(font.o)
 .data.Font08px_lv
                0x00000000        0x6 contiki-avr-atmega256rfr2.a(font.o)
 .data.Font08px_lu
                0x00000000        0x5 contiki-avr-atmega256rfr2.a(font.o)
 .data.Font08px_lt
                0x00000000        0x4 contiki-avr-atmega256rfr2.a(font.o)
 .data.Font08px_ls
                0x00000000        0x5 contiki-avr-atmega256rfr2.a(font.o)
 .data.Font08px_lr
                0x00000000        0x4 contiki-avr-atmega256rfr2.a(font.o)
 .data.Font08px_lq
                0x00000000        0x5 contiki-avr-atmega256rfr2.a(font.o)
 .data.Font08px_lp
                0x00000000        0x5 contiki-avr-atmega256rfr2.a(font.o)
 .data.Font08px_lo
                0x00000000        0x5 contiki-avr-atmega256rfr2.a(font.o)
 .data.Font08px_ln
                0x00000000        0x5 contiki-avr-atmega256rfr2.a(font.o)
 .data.Font08px_lm
                0x00000000        0x6 contiki-avr-atmega256rfr2.a(font.o)
 .data.Font08px_ll
                0x00000000        0x2 contiki-avr-atmega256rfr2.a(font.o)
 .data.Font08px_lk
                0x00000000        0x5 contiki-avr-atmega256rfr2.a(font.o)
 .data.Font08px_lj
                0x00000000        0x3 contiki-avr-atmega256rfr2.a(font.o)
 .data.Font08px_li
                0x00000000        0x2 contiki-avr-atmega256rfr2.a(font.o)
 .data.Font08px_lh
                0x00000000        0x5 contiki-avr-atmega256rfr2.a(font.o)
 .data.Font08px_lg
                0x00000000        0x5 contiki-avr-atmega256rfr2.a(font.o)
 .data.Font08px_lf
                0x00000000        0x4 contiki-avr-atmega256rfr2.a(font.o)
 .data.Font08px_le
                0x00000000        0x5 contiki-avr-atmega256rfr2.a(font.o)
 .data.Font08px_ld
                0x00000000        0x5 contiki-avr-atmega256rfr2.a(font.o)
 .data.Font08px_lc
                0x00000000        0x5 contiki-avr-atmega256rfr2.a(font.o)
 .data.Font08px_lb
                0x00000000        0x5 contiki-avr-atmega256rfr2.a(font.o)
 .data.Font08px_la
                0x00000000        0x5 contiki-avr-atmega256rfr2.a(font.o)
 .data.Font08px_96
                0x00000000        0x3 contiki-avr-atmega256rfr2.a(font.o)
 .data.Font08px_95
                0x00000000        0x4 contiki-avr-atmega256rfr2.a(font.o)
 .data.Font08px_94
                0x00000000        0x4 contiki-avr-atmega256rfr2.a(font.o)
 .data.Font08px_93
                0x00000000        0x4 contiki-avr-atmega256rfr2.a(font.o)
 .data.Font08px_92
                0x00000000        0x4 contiki-avr-atmega256rfr2.a(font.o)
 .data.Font08px_91
                0x00000000        0x4 contiki-avr-atmega256rfr2.a(font.o)
 .data.Font08px_UZ
                0x00000000        0x6 contiki-avr-atmega256rfr2.a(font.o)
 .data.Font08px_UY
                0x00000000        0x6 contiki-avr-atmega256rfr2.a(font.o)
 .data.Font08px_UX
                0x00000000        0x6 contiki-avr-atmega256rfr2.a(font.o)
 .data.Font08px_UW
                0x00000000        0x6 contiki-avr-atmega256rfr2.a(font.o)
 .data.Font08px_UV
                0x00000000        0x6 contiki-avr-atmega256rfr2.a(font.o)
 .data.Font08px_UU
                0x00000000        0x5 contiki-avr-atmega256rfr2.a(font.o)
 .data.Font08px_UT
                0x00000000        0x6 contiki-avr-atmega256rfr2.a(font.o)
 .data.Font08px_US
                0x00000000        0x5 contiki-avr-atmega256rfr2.a(font.o)
 .data.Font08px_UR
                0x00000000        0x5 contiki-avr-atmega256rfr2.a(font.o)
 .data.Font08px_UQ
                0x00000000        0x6 contiki-avr-atmega256rfr2.a(font.o)
 .data.Font08px_UP
                0x00000000        0x5 contiki-avr-atmega256rfr2.a(font.o)
 .data.Font08px_UO
                0x00000000        0x5 contiki-avr-atmega256rfr2.a(font.o)
 .data.Font08px_UN
                0x00000000        0x6 contiki-avr-atmega256rfr2.a(font.o)
 .data.Font08px_UM
                0x00000000        0x6 contiki-avr-atmega256rfr2.a(font.o)
 .data.Font08px_UL
                0x00000000        0x5 contiki-avr-atmega256rfr2.a(font.o)
 .data.Font08px_UK
                0x00000000        0x6 contiki-avr-atmega256rfr2.a(font.o)
 .data.Font08px_UJ
                0x00000000        0x5 contiki-avr-atmega256rfr2.a(font.o)
 .data.Font08px_UI
                0x00000000        0x4 contiki-avr-atmega256rfr2.a(font.o)
 .data.Font08px_UH
                0x00000000        0x5 contiki-avr-atmega256rfr2.a(font.o)
 .data.Font08px_UG
                0x00000000        0x6 contiki-avr-atmega256rfr2.a(font.o)
 .data.Font08px_UF
                0x00000000        0x5 contiki-avr-atmega256rfr2.a(font.o)
 .data.Font08px_UE
                0x00000000        0x5 contiki-avr-atmega256rfr2.a(font.o)
 .data.Font08px_UD
                0x00000000        0x5 contiki-avr-atmega256rfr2.a(font.o)
 .data.Font08px_UC
                0x00000000        0x5 contiki-avr-atmega256rfr2.a(font.o)
 .data.Font08px_UB
                0x00000000        0x5 contiki-avr-atmega256rfr2.a(font.o)
 .data.Font08px_UA
                0x00000000        0x6 contiki-avr-atmega256rfr2.a(font.o)
 .data.Font08px_64
                0x00000000        0x9 contiki-avr-atmega256rfr2.a(font.o)
 .data.Font08px_63
                0x00000000        0x6 contiki-avr-atmega256rfr2.a(font.o)
 .data.Font08px_62
                0x00000000        0x5 contiki-avr-atmega256rfr2.a(font.o)
 .data.Font08px_61
                0x00000000        0x5 contiki-avr-atmega256rfr2.a(font.o)
 .data.Font08px_60
                0x00000000        0x5 contiki-avr-atmega256rfr2.a(font.o)
 .data.Font08px_59
                0x00000000        0x2 contiki-avr-atmega256rfr2.a(font.o)
 .data.Font08px_58
                0x00000000        0x2 contiki-avr-atmega256rfr2.a(font.o)
 .data.Font08px_N9
                0x00000000        0x6 contiki-avr-atmega256rfr2.a(font.o)
 .data.Font08px_N8
                0x00000000        0x6 contiki-avr-atmega256rfr2.a(font.o)
 .data.Font08px_N7
                0x00000000        0x6 contiki-avr-atmega256rfr2.a(font.o)
 .data.Font08px_N6
                0x00000000        0x6 contiki-avr-atmega256rfr2.a(font.o)
 .data.Font08px_N5
                0x00000000        0x6 contiki-avr-atmega256rfr2.a(font.o)
 .data.Font08px_N4
                0x00000000        0x6 contiki-avr-atmega256rfr2.a(font.o)
 .data.Font08px_N3
                0x00000000        0x6 contiki-avr-atmega256rfr2.a(font.o)
 .data.Font08px_N2
                0x00000000        0x6 contiki-avr-atmega256rfr2.a(font.o)
 .data.Font08px_N1
                0x00000000        0x6 contiki-avr-atmega256rfr2.a(font.o)
 .data.Font08px_N0
                0x00000000        0x6 contiki-avr-atmega256rfr2.a(font.o)
 .data.Font08px_47
                0x00000000        0x4 contiki-avr-atmega256rfr2.a(font.o)
 .data.Font08px_46
                0x00000000        0x2 contiki-avr-atmega256rfr2.a(font.o)
 .data.Font08px_45
                0x00000000        0x4 contiki-avr-atmega256rfr2.a(font.o)
 .data.Font08px_44
                0x00000000        0x2 contiki-avr-atmega256rfr2.a(font.o)
 .data.Font08px_43
                0x00000000        0x4 contiki-avr-atmega256rfr2.a(font.o)
 .data.Font08px_42
                0x00000000        0x4 contiki-avr-atmega256rfr2.a(font.o)
 .data.Font08px_41
                0x00000000        0x4 contiki-avr-atmega256rfr2.a(font.o)
 .data.Font08px_40
                0x00000000        0x4 contiki-avr-atmega256rfr2.a(font.o)
 .data.Font08px_39
                0x00000000        0x2 contiki-avr-atmega256rfr2.a(font.o)
 .data.Font08px_38
                0x00000000        0x6 contiki-avr-atmega256rfr2.a(font.o)
 .data.Font08px_37
                0x00000000        0x6 contiki-avr-atmega256rfr2.a(font.o)
 .data.Font08px_36
                0x00000000        0x6 contiki-avr-atmega256rfr2.a(font.o)
 .data.Font08px_35
                0x00000000        0x6 contiki-avr-atmega256rfr2.a(font.o)
 .data.Font08px_34
                0x00000000        0x4 contiki-avr-atmega256rfr2.a(font.o)
 .data.Font08px_33
                0x00000000        0x2 contiki-avr-atmega256rfr2.a(font.o)
 .data.Font08px_32
                0x00000000        0x3 contiki-avr-atmega256rfr2.a(font.o)
 .data.font_table
                0x00000000       0xbe contiki-avr-atmega256rfr2.a(font.o)
 .debug_info    0x00000000      0x7ea contiki-avr-atmega256rfr2.a(font.o)
 .debug_abbrev  0x00000000       0x70 contiki-avr-atmega256rfr2.a(font.o)
 .debug_aranges
                0x00000000       0x18 contiki-avr-atmega256rfr2.a(font.o)
 .debug_line    0x00000000       0x6f contiki-avr-atmega256rfr2.a(font.o)
 .debug_str     0x00000000      0x5d0 contiki-avr-atmega256rfr2.a(font.o)
 .comment       0x00000000       0x31 contiki-avr-atmega256rfr2.a(font.o)
 .text          0x00000000        0x0 contiki-avr-atmega256rfr2.a(rtimer-arch.o)
 .data          0x00000000        0x0 contiki-avr-atmega256rfr2.a(rtimer-arch.o)
 .bss           0x00000000        0x0 contiki-avr-atmega256rfr2.a(rtimer-arch.o)
 .text          0x00000000        0x0 contiki-avr-atmega256rfr2.a(stimer.o)
 .data          0x00000000        0x0 contiki-avr-atmega256rfr2.a(stimer.o)
 .bss           0x00000000        0x0 contiki-avr-atmega256rfr2.a(stimer.o)
 .text.stimer_reset
                0x00000000       0x2c contiki-avr-atmega256rfr2.a(stimer.o)
 .text.stimer_restart
                0x00000000       0x18 contiki-avr-atmega256rfr2.a(stimer.o)
 .text.stimer_remaining
                0x00000000       0x40 contiki-avr-atmega256rfr2.a(stimer.o)
 .text.stimer_elapsed
                0x00000000       0x28 contiki-avr-atmega256rfr2.a(stimer.o)
 .text          0x00000000        0x0 contiki-avr-atmega256rfr2.a(sicslowpan.o)
 .data          0x00000000        0x0 contiki-avr-atmega256rfr2.a(sicslowpan.o)
 .bss           0x00000000        0x0 contiki-avr-atmega256rfr2.a(sicslowpan.o)
 .text.rime_sniffer_add
                0x00000000        0xa contiki-avr-atmega256rfr2.a(sicslowpan.o)
 .text.rime_sniffer_remove
                0x00000000        0xa contiki-avr-atmega256rfr2.a(sicslowpan.o)
 .text.sicslowpan_get_last_rssi
                0x00000000        0xa contiki-avr-atmega256rfr2.a(sicslowpan.o)
 .text          0x00000000        0x0 contiki-avr-atmega256rfr2.a(framer-802154.o)
 .data          0x00000000        0x0 contiki-avr-atmega256rfr2.a(framer-802154.o)
 .bss           0x00000000        0x0 contiki-avr-atmega256rfr2.a(framer-802154.o)
 .text          0x00000000        0x0 contiki-avr-atmega256rfr2.a(framer.o)
 .data          0x00000000        0x0 contiki-avr-atmega256rfr2.a(framer.o)
 .bss           0x00000000        0x0 contiki-avr-atmega256rfr2.a(framer.o)
 .text          0x00000000        0x0 contiki-avr-atmega256rfr2.a(mac.o)
 .data          0x00000000        0x0 contiki-avr-atmega256rfr2.a(mac.o)
 .bss           0x00000000        0x0 contiki-avr-atmega256rfr2.a(mac.o)
 .text          0x00000000        0x0 contiki-avr-atmega256rfr2.a(frame802154.o)
 .data          0x00000000        0x0 contiki-avr-atmega256rfr2.a(frame802154.o)
 .bss           0x00000000        0x0 contiki-avr-atmega256rfr2.a(frame802154.o)
 .text          0x00000000        0x0 /usr/local/bin/../lib/gcc/avr/4.8.1/avr6/libgcc.a(_udivmodhi4.o)
 .data          0x00000000        0x0 /usr/local/bin/../lib/gcc/avr/4.8.1/avr6/libgcc.a(_udivmodhi4.o)
 .bss           0x00000000        0x0 /usr/local/bin/../lib/gcc/avr/4.8.1/avr6/libgcc.a(_udivmodhi4.o)
 .text.libgcc.mul
                0x00000000        0x0 /usr/local/bin/../lib/gcc/avr/4.8.1/avr6/libgcc.a(_udivmodhi4.o)
 .text.libgcc   0x00000000        0x0 /usr/local/bin/../lib/gcc/avr/4.8.1/avr6/libgcc.a(_udivmodhi4.o)
 .text.libgcc.prologue
                0x00000000        0x0 /usr/local/bin/../lib/gcc/avr/4.8.1/avr6/libgcc.a(_udivmodhi4.o)
 .text.libgcc.builtins
                0x00000000        0x0 /usr/local/bin/../lib/gcc/avr/4.8.1/avr6/libgcc.a(_udivmodhi4.o)
 .text.libgcc.fmul
                0x00000000        0x0 /usr/local/bin/../lib/gcc/avr/4.8.1/avr6/libgcc.a(_udivmodhi4.o)
 .text.libgcc.fixed
                0x00000000        0x0 /usr/local/bin/../lib/gcc/avr/4.8.1/avr6/libgcc.a(_udivmodhi4.o)
 .text          0x00000000        0x0 /usr/local/bin/../lib/gcc/avr/4.8.1/avr6/libgcc.a(_divmodhi4.o)
 .data          0x00000000        0x0 /usr/local/bin/../lib/gcc/avr/4.8.1/avr6/libgcc.a(_divmodhi4.o)
 .bss           0x00000000        0x0 /usr/local/bin/../lib/gcc/avr/4.8.1/avr6/libgcc.a(_divmodhi4.o)
 .text.libgcc.mul
                0x00000000        0x0 /usr/local/bin/../lib/gcc/avr/4.8.1/avr6/libgcc.a(_divmodhi4.o)
 .text.libgcc   0x00000000        0x0 /usr/local/bin/../lib/gcc/avr/4.8.1/avr6/libgcc.a(_divmodhi4.o)
 .text.libgcc.prologue
                0x00000000        0x0 /usr/local/bin/../lib/gcc/avr/4.8.1/avr6/libgcc.a(_divmodhi4.o)
 .text.libgcc.builtins
                0x00000000        0x0 /usr/local/bin/../lib/gcc/avr/4.8.1/avr6/libgcc.a(_divmodhi4.o)
 .text.libgcc.fmul
                0x00000000        0x0 /usr/local/bin/../lib/gcc/avr/4.8.1/avr6/libgcc.a(_divmodhi4.o)
 .text.libgcc.fixed
                0x00000000        0x0 /usr/local/bin/../lib/gcc/avr/4.8.1/avr6/libgcc.a(_divmodhi4.o)
 .text          0x00000000        0x0 /usr/local/bin/../lib/gcc/avr/4.8.1/avr6/libgcc.a(_udivmodsi4.o)
 .data          0x00000000        0x0 /usr/local/bin/../lib/gcc/avr/4.8.1/avr6/libgcc.a(_udivmodsi4.o)
 .bss           0x00000000        0x0 /usr/local/bin/../lib/gcc/avr/4.8.1/avr6/libgcc.a(_udivmodsi4.o)
 .text.libgcc.mul
                0x00000000        0x0 /usr/local/bin/../lib/gcc/avr/4.8.1/avr6/libgcc.a(_udivmodsi4.o)
 .text.libgcc   0x00000000        0x0 /usr/local/bin/../lib/gcc/avr/4.8.1/avr6/libgcc.a(_udivmodsi4.o)
 .text.libgcc.prologue
                0x00000000        0x0 /usr/local/bin/../lib/gcc/avr/4.8.1/avr6/libgcc.a(_udivmodsi4.o)
 .text.libgcc.builtins
                0x00000000        0x0 /usr/local/bin/../lib/gcc/avr/4.8.1/avr6/libgcc.a(_udivmodsi4.o)
 .text.libgcc.fmul
                0x00000000        0x0 /usr/local/bin/../lib/gcc/avr/4.8.1/avr6/libgcc.a(_udivmodsi4.o)
 .text.libgcc.fixed
                0x00000000        0x0 /usr/local/bin/../lib/gcc/avr/4.8.1/avr6/libgcc.a(_udivmodsi4.o)
 .text          0x00000000        0x0 /usr/local/bin/../lib/gcc/avr/4.8.1/avr6/libgcc.a(_exit.o)
 .data          0x00000000        0x0 /usr/local/bin/../lib/gcc/avr/4.8.1/avr6/libgcc.a(_exit.o)
 .bss           0x00000000        0x0 /usr/local/bin/../lib/gcc/avr/4.8.1/avr6/libgcc.a(_exit.o)
 .text.libgcc.mul
                0x00000000        0x0 /usr/local/bin/../lib/gcc/avr/4.8.1/avr6/libgcc.a(_exit.o)
 .text.libgcc.div
                0x00000000        0x0 /usr/local/bin/../lib/gcc/avr/4.8.1/avr6/libgcc.a(_exit.o)
 .text.libgcc   0x00000000        0x0 /usr/local/bin/../lib/gcc/avr/4.8.1/avr6/libgcc.a(_exit.o)
 .text.libgcc.prologue
                0x00000000        0x0 /usr/local/bin/../lib/gcc/avr/4.8.1/avr6/libgcc.a(_exit.o)
 .text.libgcc.builtins
                0x00000000        0x0 /usr/local/bin/../lib/gcc/avr/4.8.1/avr6/libgcc.a(_exit.o)
 .text.libgcc.fmul
                0x00000000        0x0 /usr/local/bin/../lib/gcc/avr/4.8.1/avr6/libgcc.a(_exit.o)
 .text.libgcc.fixed
                0x00000000        0x0 /usr/local/bin/../lib/gcc/avr/4.8.1/avr6/libgcc.a(_exit.o)
 .text          0x00000000        0x0 /usr/local/bin/../lib/gcc/avr/4.8.1/avr6/libgcc.a(_tablejump.o)
 .data          0x00000000        0x0 /usr/local/bin/../lib/gcc/avr/4.8.1/avr6/libgcc.a(_tablejump.o)
 .bss           0x00000000        0x0 /usr/local/bin/../lib/gcc/avr/4.8.1/avr6/libgcc.a(_tablejump.o)
 .text.libgcc.mul
                0x00000000        0x0 /usr/local/bin/../lib/gcc/avr/4.8.1/avr6/libgcc.a(_tablejump.o)
 .text.libgcc.div
                0x00000000        0x0 /usr/local/bin/../lib/gcc/avr/4.8.1/avr6/libgcc.a(_tablejump.o)
 .text.libgcc.prologue
                0x00000000        0x0 /usr/local/bin/../lib/gcc/avr/4.8.1/avr6/libgcc.a(_tablejump.o)
 .text.libgcc.builtins
                0x00000000        0x0 /usr/local/bin/../lib/gcc/avr/4.8.1/avr6/libgcc.a(_tablejump.o)
 .text.libgcc.fmul
                0x00000000        0x0 /usr/local/bin/../lib/gcc/avr/4.8.1/avr6/libgcc.a(_tablejump.o)
 .text.libgcc.fixed
                0x00000000        0x0 /usr/local/bin/../lib/gcc/avr/4.8.1/avr6/libgcc.a(_tablejump.o)
 .text          0x00000000        0x0 /usr/local/bin/../lib/gcc/avr/4.8.1/avr6/libgcc.a(_copy_data.o)
 .data          0x00000000        0x0 /usr/local/bin/../lib/gcc/avr/4.8.1/avr6/libgcc.a(_copy_data.o)
 .bss           0x00000000        0x0 /usr/local/bin/../lib/gcc/avr/4.8.1/avr6/libgcc.a(_copy_data.o)
 .text.libgcc.mul
                0x00000000        0x0 /usr/local/bin/../lib/gcc/avr/4.8.1/avr6/libgcc.a(_copy_data.o)
 .text.libgcc.div
                0x00000000        0x0 /usr/local/bin/../lib/gcc/avr/4.8.1/avr6/libgcc.a(_copy_data.o)
 .text.libgcc   0x00000000        0x0 /usr/local/bin/../lib/gcc/avr/4.8.1/avr6/libgcc.a(_copy_data.o)
 .text.libgcc.prologue
                0x00000000        0x0 /usr/local/bin/../lib/gcc/avr/4.8.1/avr6/libgcc.a(_copy_data.o)
 .text.libgcc.builtins
                0x00000000        0x0 /usr/local/bin/../lib/gcc/avr/4.8.1/avr6/libgcc.a(_copy_data.o)
 .text.libgcc.fmul
                0x00000000        0x0 /usr/local/bin/../lib/gcc/avr/4.8.1/avr6/libgcc.a(_copy_data.o)
 .text.libgcc.fixed
                0x00000000        0x0 /usr/local/bin/../lib/gcc/avr/4.8.1/avr6/libgcc.a(_copy_data.o)
 .text          0x00000000        0x0 /usr/local/bin/../lib/gcc/avr/4.8.1/avr6/libgcc.a(_clear_bss.o)
 .data          0x00000000        0x0 /usr/local/bin/../lib/gcc/avr/4.8.1/avr6/libgcc.a(_clear_bss.o)
 .bss           0x00000000        0x0 /usr/local/bin/../lib/gcc/avr/4.8.1/avr6/libgcc.a(_clear_bss.o)
 .text.libgcc.mul
                0x00000000        0x0 /usr/local/bin/../lib/gcc/avr/4.8.1/avr6/libgcc.a(_clear_bss.o)
 .text.libgcc.div
                0x00000000        0x0 /usr/local/bin/../lib/gcc/avr/4.8.1/avr6/libgcc.a(_clear_bss.o)
 .text.libgcc   0x00000000        0x0 /usr/local/bin/../lib/gcc/avr/4.8.1/avr6/libgcc.a(_clear_bss.o)
 .text.libgcc.prologue
                0x00000000        0x0 /usr/local/bin/../lib/gcc/avr/4.8.1/avr6/libgcc.a(_clear_bss.o)
 .text.libgcc.builtins
                0x00000000        0x0 /usr/local/bin/../lib/gcc/avr/4.8.1/avr6/libgcc.a(_clear_bss.o)
 .text.libgcc.fmul
                0x00000000        0x0 /usr/local/bin/../lib/gcc/avr/4.8.1/avr6/libgcc.a(_clear_bss.o)
 .text.libgcc.fixed
                0x00000000        0x0 /usr/local/bin/../lib/gcc/avr/4.8.1/avr6/libgcc.a(_clear_bss.o)
 .text          0x00000000        0x0 /usr/local/bin/../lib/gcc/avr/4.8.1/avr6/libgcc.a(_bswapsi2.o)
 .data          0x00000000        0x0 /usr/local/bin/../lib/gcc/avr/4.8.1/avr6/libgcc.a(_bswapsi2.o)
 .bss           0x00000000        0x0 /usr/local/bin/../lib/gcc/avr/4.8.1/avr6/libgcc.a(_bswapsi2.o)
 .text.libgcc.mul
                0x00000000        0x0 /usr/local/bin/../lib/gcc/avr/4.8.1/avr6/libgcc.a(_bswapsi2.o)
 .text.libgcc.div
                0x00000000        0x0 /usr/local/bin/../lib/gcc/avr/4.8.1/avr6/libgcc.a(_bswapsi2.o)
 .text.libgcc   0x00000000        0x0 /usr/local/bin/../lib/gcc/avr/4.8.1/avr6/libgcc.a(_bswapsi2.o)
 .text.libgcc.prologue
                0x00000000        0x0 /usr/local/bin/../lib/gcc/avr/4.8.1/avr6/libgcc.a(_bswapsi2.o)
 .text.libgcc.fmul
                0x00000000        0x0 /usr/local/bin/../lib/gcc/avr/4.8.1/avr6/libgcc.a(_bswapsi2.o)
 .text.libgcc.fixed
                0x00000000        0x0 /usr/local/bin/../lib/gcc/avr/4.8.1/avr6/libgcc.a(_bswapsi2.o)
 .text          0x00000000        0x0 /usr/local/bin/../lib/gcc/avr/4.8.1/avr6/libgcc.a(_umulhisi3.o)
 .data          0x00000000        0x0 /usr/local/bin/../lib/gcc/avr/4.8.1/avr6/libgcc.a(_umulhisi3.o)
 .bss           0x00000000        0x0 /usr/local/bin/../lib/gcc/avr/4.8.1/avr6/libgcc.a(_umulhisi3.o)
 .text.libgcc.div
                0x00000000        0x0 /usr/local/bin/../lib/gcc/avr/4.8.1/avr6/libgcc.a(_umulhisi3.o)
 .text.libgcc   0x00000000        0x0 /usr/local/bin/../lib/gcc/avr/4.8.1/avr6/libgcc.a(_umulhisi3.o)
 .text.libgcc.prologue
                0x00000000        0x0 /usr/local/bin/../lib/gcc/avr/4.8.1/avr6/libgcc.a(_umulhisi3.o)
 .text.libgcc.builtins
                0x00000000        0x0 /usr/local/bin/../lib/gcc/avr/4.8.1/avr6/libgcc.a(_umulhisi3.o)
 .text.libgcc.fmul
                0x00000000        0x0 /usr/local/bin/../lib/gcc/avr/4.8.1/avr6/libgcc.a(_umulhisi3.o)
 .text.libgcc.fixed
                0x00000000        0x0 /usr/local/bin/../lib/gcc/avr/4.8.1/avr6/libgcc.a(_umulhisi3.o)
 .text          0x00000000        0x0 /usr/local/bin/../lib/gcc/avr/4.8.1/../../../../avr/lib/avr6/libc.a(rand.o)
 .bss           0x00000000        0x0 /usr/local/bin/../lib/gcc/avr/4.8.1/../../../../avr/lib/avr6/libc.a(rand.o)
 .text          0x00000000        0x0 /usr/local/bin/../lib/gcc/avr/4.8.1/../../../../avr/lib/avr6/libc.a(memcmp.o)
 .data          0x00000000        0x0 /usr/local/bin/../lib/gcc/avr/4.8.1/../../../../avr/lib/avr6/libc.a(memcmp.o)
 .bss           0x00000000        0x0 /usr/local/bin/../lib/gcc/avr/4.8.1/../../../../avr/lib/avr6/libc.a(memcmp.o)
 .text          0x00000000        0x0 /usr/local/bin/../lib/gcc/avr/4.8.1/../../../../avr/lib/avr6/libc.a(memcpy.o)
 .data          0x00000000        0x0 /usr/local/bin/../lib/gcc/avr/4.8.1/../../../../avr/lib/avr6/libc.a(memcpy.o)
 .bss           0x00000000        0x0 /usr/local/bin/../lib/gcc/avr/4.8.1/../../../../avr/lib/avr6/libc.a(memcpy.o)
 .text          0x00000000        0x0 /usr/local/bin/../lib/gcc/avr/4.8.1/../../../../avr/lib/avr6/libc.a(memmove.o)
 .data          0x00000000        0x0 /usr/local/bin/../lib/gcc/avr/4.8.1/../../../../avr/lib/avr6/libc.a(memmove.o)
 .bss           0x00000000        0x0 /usr/local/bin/../lib/gcc/avr/4.8.1/../../../../avr/lib/avr6/libc.a(memmove.o)
 .text          0x00000000        0x0 /usr/local/bin/../lib/gcc/avr/4.8.1/../../../../avr/lib/avr6/libc.a(memset.o)
 .data          0x00000000        0x0 /usr/local/bin/../lib/gcc/avr/4.8.1/../../../../avr/lib/avr6/libc.a(memset.o)
 .bss           0x00000000        0x0 /usr/local/bin/../lib/gcc/avr/4.8.1/../../../../avr/lib/avr6/libc.a(memset.o)
 .text          0x00000000        0x0 /usr/local/bin/../lib/gcc/avr/4.8.1/../../../../avr/lib/avr6/libc.a(iob.o)
 .data          0x00000000        0x0 /usr/local/bin/../lib/gcc/avr/4.8.1/../../../../avr/lib/avr6/libc.a(iob.o)
 .bss           0x00000000        0x0 /usr/local/bin/../lib/gcc/avr/4.8.1/../../../../avr/lib/avr6/libc.a(iob.o)
 .text          0x00000000        0x0 /usr/local/bin/../lib/gcc/avr/4.8.1/../../../../avr/lib/avr6/libc.a(printf.o)
 .data          0x00000000        0x0 /usr/local/bin/../lib/gcc/avr/4.8.1/../../../../avr/lib/avr6/libc.a(printf.o)
 .bss           0x00000000        0x0 /usr/local/bin/../lib/gcc/avr/4.8.1/../../../../avr/lib/avr6/libc.a(printf.o)
 .text          0x00000000        0x0 /usr/local/bin/../lib/gcc/avr/4.8.1/../../../../avr/lib/avr6/libc.a(printf_p.o)
 .data          0x00000000        0x0 /usr/local/bin/../lib/gcc/avr/4.8.1/../../../../avr/lib/avr6/libc.a(printf_p.o)
 .bss           0x00000000        0x0 /usr/local/bin/../lib/gcc/avr/4.8.1/../../../../avr/lib/avr6/libc.a(printf_p.o)
 .text          0x00000000        0x0 /usr/local/bin/../lib/gcc/avr/4.8.1/../../../../avr/lib/avr6/libc.a(putchar.o)
 .data          0x00000000        0x0 /usr/local/bin/../lib/gcc/avr/4.8.1/../../../../avr/lib/avr6/libc.a(putchar.o)
 .bss           0x00000000        0x0 /usr/local/bin/../lib/gcc/avr/4.8.1/../../../../avr/lib/avr6/libc.a(putchar.o)
 .text          0x00000000        0x0 /usr/local/bin/../lib/gcc/avr/4.8.1/../../../../avr/lib/avr6/libc.a(puts.o)
 .data          0x00000000        0x0 /usr/local/bin/../lib/gcc/avr/4.8.1/../../../../avr/lib/avr6/libc.a(puts.o)
 .bss           0x00000000        0x0 /usr/local/bin/../lib/gcc/avr/4.8.1/../../../../avr/lib/avr6/libc.a(puts.o)
 .text          0x00000000        0x0 /usr/local/bin/../lib/gcc/avr/4.8.1/../../../../avr/lib/avr6/libc.a(vfprintf_std.o)
 .data          0x00000000        0x0 /usr/local/bin/../lib/gcc/avr/4.8.1/../../../../avr/lib/avr6/libc.a(vfprintf_std.o)
 .bss           0x00000000        0x0 /usr/local/bin/../lib/gcc/avr/4.8.1/../../../../avr/lib/avr6/libc.a(vfprintf_std.o)
 .text          0x00000000        0x0 /usr/local/bin/../lib/gcc/avr/4.8.1/../../../../avr/lib/avr6/libc.a(eerd_block_atmega256rfr2.o)
 .data          0x00000000        0x0 /usr/local/bin/../lib/gcc/avr/4.8.1/../../../../avr/lib/avr6/libc.a(eerd_block_atmega256rfr2.o)
 .bss           0x00000000        0x0 /usr/local/bin/../lib/gcc/avr/4.8.1/../../../../avr/lib/avr6/libc.a(eerd_block_atmega256rfr2.o)
 .text          0x00000000        0x0 /usr/local/bin/../lib/gcc/avr/4.8.1/../../../../avr/lib/avr6/libc.a(eerd_byte_atmega256rfr2.o)
 .data          0x00000000        0x0 /usr/local/bin/../lib/gcc/avr/4.8.1/../../../../avr/lib/avr6/libc.a(eerd_byte_atmega256rfr2.o)
 .bss           0x00000000        0x0 /usr/local/bin/../lib/gcc/avr/4.8.1/../../../../avr/lib/avr6/libc.a(eerd_byte_atmega256rfr2.o)
 .text          0x00000000        0x0 /usr/local/bin/../lib/gcc/avr/4.8.1/../../../../avr/lib/avr6/libc.a(eerd_word_atmega256rfr2.o)
 .data          0x00000000        0x0 /usr/local/bin/../lib/gcc/avr/4.8.1/../../../../avr/lib/avr6/libc.a(eerd_word_atmega256rfr2.o)
 .bss           0x00000000        0x0 /usr/local/bin/../lib/gcc/avr/4.8.1/../../../../avr/lib/avr6/libc.a(eerd_word_atmega256rfr2.o)
 .text          0x00000000        0x0 /usr/local/bin/../lib/gcc/avr/4.8.1/../../../../avr/lib/avr6/libc.a(eewr_block_atmega256rfr2.o)
 .data          0x00000000        0x0 /usr/local/bin/../lib/gcc/avr/4.8.1/../../../../avr/lib/avr6/libc.a(eewr_block_atmega256rfr2.o)
 .bss           0x00000000        0x0 /usr/local/bin/../lib/gcc/avr/4.8.1/../../../../avr/lib/avr6/libc.a(eewr_block_atmega256rfr2.o)
 .text          0x00000000        0x0 /usr/local/bin/../lib/gcc/avr/4.8.1/../../../../avr/lib/avr6/libc.a(eewr_byte_atmega256rfr2.o)
 .data          0x00000000        0x0 /usr/local/bin/../lib/gcc/avr/4.8.1/../../../../avr/lib/avr6/libc.a(eewr_byte_atmega256rfr2.o)
 .bss           0x00000000        0x0 /usr/local/bin/../lib/gcc/avr/4.8.1/../../../../avr/lib/avr6/libc.a(eewr_byte_atmega256rfr2.o)
 .text          0x00000000        0x0 /usr/local/bin/../lib/gcc/avr/4.8.1/../../../../avr/lib/avr6/libc.a(eewr_word_atmega256rfr2.o)
 .data          0x00000000        0x0 /usr/local/bin/../lib/gcc/avr/4.8.1/../../../../avr/lib/avr6/libc.a(eewr_word_atmega256rfr2.o)
 .bss           0x00000000        0x0 /usr/local/bin/../lib/gcc/avr/4.8.1/../../../../avr/lib/avr6/libc.a(eewr_word_atmega256rfr2.o)
 .text          0x00000000        0x0 /usr/local/bin/../lib/gcc/avr/4.8.1/../../../../avr/lib/avr6/libc.a(strnlen_P.o)
 .data          0x00000000        0x0 /usr/local/bin/../lib/gcc/avr/4.8.1/../../../../avr/lib/avr6/libc.a(strnlen_P.o)
 .bss           0x00000000        0x0 /usr/local/bin/../lib/gcc/avr/4.8.1/../../../../avr/lib/avr6/libc.a(strnlen_P.o)
 .text          0x00000000        0x0 /usr/local/bin/../lib/gcc/avr/4.8.1/../../../../avr/lib/avr6/libc.a(strnlen.o)
 .data          0x00000000        0x0 /usr/local/bin/../lib/gcc/avr/4.8.1/../../../../avr/lib/avr6/libc.a(strnlen.o)
 .bss           0x00000000        0x0 /usr/local/bin/../lib/gcc/avr/4.8.1/../../../../avr/lib/avr6/libc.a(strnlen.o)
 .text          0x00000000        0x0 /usr/local/bin/../lib/gcc/avr/4.8.1/../../../../avr/lib/avr6/libc.a(fputc.o)
 .data          0x00000000        0x0 /usr/local/bin/../lib/gcc/avr/4.8.1/../../../../avr/lib/avr6/libc.a(fputc.o)
 .bss           0x00000000        0x0 /usr/local/bin/../lib/gcc/avr/4.8.1/../../../../avr/lib/avr6/libc.a(fputc.o)
 .text          0x00000000        0x0 /usr/local/bin/../lib/gcc/avr/4.8.1/../../../../avr/lib/avr6/libc.a(ultoa_invert.o)
 .data          0x00000000        0x0 /usr/local/bin/../lib/gcc/avr/4.8.1/../../../../avr/lib/avr6/libc.a(ultoa_invert.o)
 .bss           0x00000000        0x0 /usr/local/bin/../lib/gcc/avr/4.8.1/../../../../avr/lib/avr6/libc.a(ultoa_invert.o)
 .text          0x00000000        0x0 /usr/local/bin/../lib/gcc/avr/4.8.1/avr6/libgcc.a(_divmodsi4.o)
 .data          0x00000000        0x0 /usr/local/bin/../lib/gcc/avr/4.8.1/avr6/libgcc.a(_divmodsi4.o)
 .bss           0x00000000        0x0 /usr/local/bin/../lib/gcc/avr/4.8.1/avr6/libgcc.a(_divmodsi4.o)
 .text.libgcc.mul
                0x00000000        0x0 /usr/local/bin/../lib/gcc/avr/4.8.1/avr6/libgcc.a(_divmodsi4.o)
 .text.libgcc   0x00000000        0x0 /usr/local/bin/../lib/gcc/avr/4.8.1/avr6/libgcc.a(_divmodsi4.o)
 .text.libgcc.prologue
                0x00000000        0x0 /usr/local/bin/../lib/gcc/avr/4.8.1/avr6/libgcc.a(_divmodsi4.o)
 .text.libgcc.builtins
                0x00000000        0x0 /usr/local/bin/../lib/gcc/avr/4.8.1/avr6/libgcc.a(_divmodsi4.o)
 .text.libgcc.fmul
                0x00000000        0x0 /usr/local/bin/../lib/gcc/avr/4.8.1/avr6/libgcc.a(_divmodsi4.o)
 .text.libgcc.fixed
                0x00000000        0x0 /usr/local/bin/../lib/gcc/avr/4.8.1/avr6/libgcc.a(_divmodsi4.o)
 .text          0x00000000        0x0 /usr/local/bin/../lib/gcc/avr/4.8.1/avr6/libgcc.a(_negsi2.o)
 .data          0x00000000        0x0 /usr/local/bin/../lib/gcc/avr/4.8.1/avr6/libgcc.a(_negsi2.o)
 .bss           0x00000000        0x0 /usr/local/bin/../lib/gcc/avr/4.8.1/avr6/libgcc.a(_negsi2.o)
 .text.libgcc.mul
                0x00000000        0x0 /usr/local/bin/../lib/gcc/avr/4.8.1/avr6/libgcc.a(_negsi2.o)
 .text.libgcc   0x00000000        0x0 /usr/local/bin/../lib/gcc/avr/4.8.1/avr6/libgcc.a(_negsi2.o)
 .text.libgcc.prologue
                0x00000000        0x0 /usr/local/bin/../lib/gcc/avr/4.8.1/avr6/libgcc.a(_negsi2.o)
 .text.libgcc.builtins
                0x00000000        0x0 /usr/local/bin/../lib/gcc/avr/4.8.1/avr6/libgcc.a(_negsi2.o)
 .text.libgcc.fmul
                0x00000000        0x0 /usr/local/bin/../lib/gcc/avr/4.8.1/avr6/libgcc.a(_negsi2.o)
 .text.libgcc.fixed
                0x00000000        0x0 /usr/local/bin/../lib/gcc/avr/4.8.1/avr6/libgcc.a(_negsi2.o)
 .text          0x00000000        0x0 /usr/local/bin/../lib/gcc/avr/4.8.1/avr6/libgcc.a(_muluhisi3.o)
 .data          0x00000000        0x0 /usr/local/bin/../lib/gcc/avr/4.8.1/avr6/libgcc.a(_muluhisi3.o)
 .bss           0x00000000        0x0 /usr/local/bin/../lib/gcc/avr/4.8.1/avr6/libgcc.a(_muluhisi3.o)
 .text.libgcc.div
                0x00000000        0x0 /usr/local/bin/../lib/gcc/avr/4.8.1/avr6/libgcc.a(_muluhisi3.o)
 .text.libgcc   0x00000000        0x0 /usr/local/bin/../lib/gcc/avr/4.8.1/avr6/libgcc.a(_muluhisi3.o)
 .text.libgcc.prologue
                0x00000000        0x0 /usr/local/bin/../lib/gcc/avr/4.8.1/avr6/libgcc.a(_muluhisi3.o)
 .text.libgcc.builtins
                0x00000000        0x0 /usr/local/bin/../lib/gcc/avr/4.8.1/avr6/libgcc.a(_muluhisi3.o)
 .text.libgcc.fmul
                0x00000000        0x0 /usr/local/bin/../lib/gcc/avr/4.8.1/avr6/libgcc.a(_muluhisi3.o)
 .text.libgcc.fixed
                0x00000000        0x0 /usr/local/bin/../lib/gcc/avr/4.8.1/avr6/libgcc.a(_muluhisi3.o)
 .text          0x00000000        0x0 /usr/local/bin/../lib/gcc/avr/4.8.1/avr6/libgcc.a(_mulshisi3.o)
 .data          0x00000000        0x0 /usr/local/bin/../lib/gcc/avr/4.8.1/avr6/libgcc.a(_mulshisi3.o)
 .bss           0x00000000        0x0 /usr/local/bin/../lib/gcc/avr/4.8.1/avr6/libgcc.a(_mulshisi3.o)
 .text.libgcc.div
                0x00000000        0x0 /usr/local/bin/../lib/gcc/avr/4.8.1/avr6/libgcc.a(_mulshisi3.o)
 .text.libgcc   0x00000000        0x0 /usr/local/bin/../lib/gcc/avr/4.8.1/avr6/libgcc.a(_mulshisi3.o)
 .text.libgcc.prologue
                0x00000000        0x0 /usr/local/bin/../lib/gcc/avr/4.8.1/avr6/libgcc.a(_mulshisi3.o)
 .text.libgcc.builtins
                0x00000000        0x0 /usr/local/bin/../lib/gcc/avr/4.8.1/avr6/libgcc.a(_mulshisi3.o)
 .text.libgcc.fmul
                0x00000000        0x0 /usr/local/bin/../lib/gcc/avr/4.8.1/avr6/libgcc.a(_mulshisi3.o)
 .text.libgcc.fixed
                0x00000000        0x0 /usr/local/bin/../lib/gcc/avr/4.8.1/avr6/libgcc.a(_mulshisi3.o)

Memory Configuration

Name             Origin             Length             Attributes
text             0x00000000         0x00100000         xr
data             0x00800200         0x0000fe00         rw !x
eeprom           0x00810000         0x00010000         rw !x
fuse             0x00820000         0x00000400         rw !x
lock             0x00830000         0x00000400         rw !x
signature        0x00840000         0x00000400         rw !x
user_signatures  0x00850000         0x00000400         rw !x
*default*        0x00000000         0xffffffff

Linker script and memory map

Address of section .data set to 0x800200
LOAD /usr/local/bin/../lib/gcc/avr/4.8.1/../../../../avr/lib/avr6/crtm256rfr2.o
Address of section .bootloader set to 0x1f800
LOAD unicast-receiver.co
LOAD contiki-avr-atmega256rfr2.a
START GROUP
LOAD /usr/local/bin/../lib/gcc/avr/4.8.1/avr6/libgcc.a
LOAD /usr/local/bin/../lib/gcc/avr/4.8.1/../../../../avr/lib/avr6/libm.a
LOAD /usr/local/bin/../lib/gcc/avr/4.8.1/../../../../avr/lib/avr6/libc.a
END GROUP

.hash
 *(.hash)

.dynsym
 *(.dynsym)

.dynstr
 *(.dynstr)

.gnu.version
 *(.gnu.version)

.gnu.version_d
 *(.gnu.version_d)

.gnu.version_r
 *(.gnu.version_r)

.rel.init
 *(.rel.init)

.rela.init
 *(.rela.init)

.rel.text
 *(.rel.text)
 *(.rel.text.*)
 *(.rel.gnu.linkonce.t*)

.rela.text
 *(.rela.text)
 *(.rela.text.*)
 *(.rela.gnu.linkonce.t*)

.rel.fini
 *(.rel.fini)

.rela.fini
 *(.rela.fini)

.rel.rodata
 *(.rel.rodata)
 *(.rel.rodata.*)
 *(.rel.gnu.linkonce.r*)

.rela.rodata
 *(.rela.rodata)
 *(.rela.rodata.*)
 *(.rela.gnu.linkonce.r*)

.rel.data
 *(.rel.data)
 *(.rel.data.*)
 *(.rel.gnu.linkonce.d*)

.rela.data
 *(.rela.data)
 *(.rela.data.*)
 *(.rela.gnu.linkonce.d*)

.rel.ctors
 *(.rel.ctors)

.rela.ctors
 *(.rela.ctors)

.rel.dtors
 *(.rel.dtors)

.rela.dtors
 *(.rela.dtors)

.rel.got
 *(.rel.got)

.rela.got
 *(.rela.got)

.rel.bss
 *(.rel.bss)

.rela.bss
 *(.rela.bss)

.rel.plt
 *(.rel.plt)

.rela.plt
 *(.rela.plt)

.text           0x00000000     0xc9a6
 *(.vectors)
 .vectors       0x00000000      0x134 /usr/local/bin/../lib/gcc/avr/4.8.1/../../../../avr/lib/avr6/crtm256rfr2.o
                0x00000000                __vectors
                0x00000000                __vector_default
 *(.vectors)
 *(.progmem.gcc*)
 .progmem.gcc_sw_table.uip_process
                0x00000134       0x10 contiki-avr-atmega256rfr2.a(uip6.o)
                0x00000144                . = ALIGN (0x2)
                0x00000144                __trampolines_start = .
 *(.trampolines)
 .trampolines   0x00000144      0x138 linker stubs
 *(.trampolines*)
                0x0000027c                __trampolines_end = .
 *(.progmem*)
 .progmem.data.__c.4684
                0x0000027c        0x3 contiki-avr-atmega256rfr2.a(contiki-main.o)
 .progmem.data.__c.4682
                0x0000027f        0x2 contiki-avr-atmega256rfr2.a(contiki-main.o)
 .progmem.data.__c.4680
                0x00000281        0x3 contiki-avr-atmega256rfr2.a(contiki-main.o)
 .progmem.data.__c.4734
                0x00000284       0x1d contiki-avr-atmega256rfr2.a(contiki-main.o)
 .progmem.data.__c.4729
                0x000002a1        0xc contiki-avr-atmega256rfr2.a(contiki-main.o)
 .progmem.data.__c.4727
                0x000002ad        0x9 contiki-avr-atmega256rfr2.a(contiki-main.o)
 .progmem.data.__c.4722
                0x000002b6        0x8 contiki-avr-atmega256rfr2.a(contiki-main.o)
 .progmem.data.__c.4720
                0x000002be        0xa contiki-avr-atmega256rfr2.a(contiki-main.o)
 .progmem.data.__c.4718
                0x000002c8       0x12 contiki-avr-atmega256rfr2.a(contiki-main.o)
 .progmem.data.__c.4715
                0x000002da       0x12 contiki-avr-atmega256rfr2.a(contiki-main.o)
 .progmem.data.__c.4710
                0x000002ec        0x2 contiki-avr-atmega256rfr2.a(contiki-main.o)
 .progmem.data.__c.4708
                0x000002ee       0x15 contiki-avr-atmega256rfr2.a(contiki-main.o)
 .progmem.data.__c.4703
                0x00000303        0x2 contiki-avr-atmega256rfr2.a(contiki-main.o)
 .progmem.data.__c.4701
                0x00000305       0x15 contiki-avr-atmega256rfr2.a(contiki-main.o)
 .progmem.data.__c.4672
                0x0000031a        0x8 contiki-avr-atmega256rfr2.a(contiki-main.o)
 .progmem.data.__c.4665
                0x00000322       0x11 contiki-avr-atmega256rfr2.a(contiki-main.o)
 .progmem.data.__c.4663
                0x00000333        0xd contiki-avr-atmega256rfr2.a(contiki-main.o)
 .progmem.data.__c.4661
                0x00000340       0x32 contiki-avr-atmega256rfr2.a(contiki-main.o)
 .progmem.data.__c.4659
                0x00000372       0x25 contiki-avr-atmega256rfr2.a(contiki-main.o)
 .progmem.data.__c.4657
                0x00000397       0x20 contiki-avr-atmega256rfr2.a(contiki-main.o)
 .progmem.data.__c.4654
                0x000003b7       0x1b contiki-avr-atmega256rfr2.a(contiki-main.o)
 .progmem.data.__c.4647
                0x000003d2        0xd contiki-avr-atmega256rfr2.a(contiki-main.o)
 .progmem.data.__c.4645
                0x000003df       0x11 contiki-avr-atmega256rfr2.a(contiki-main.o)
 .progmem.data.__c.4643
                0x000003f0       0x11 contiki-avr-atmega256rfr2.a(contiki-main.o)
 .progmem.data.__c.4641
                0x00000401       0x11 contiki-avr-atmega256rfr2.a(contiki-main.o)
 .progmem.data.__c.4639
                0x00000412       0x11 contiki-avr-atmega256rfr2.a(contiki-main.o)
 .progmem.data.__c.4634
                0x00000423        0xf contiki-avr-atmega256rfr2.a(contiki-main.o)
 .progmem.data.__c.4413
                0x00000432       0x2d contiki-avr-atmega256rfr2.a(params.o)
 .progmem.data.default_domain_name
                0x0000045f        0xa contiki-avr-atmega256rfr2.a(params.o)
                0x0000045f                default_domain_name
 .progmem.data.default_server_name
                0x00000469        0xe contiki-avr-atmega256rfr2.a(params.o)
                0x00000469                default_server_name
 .progmem.data.default_mac_address
                0x00000477        0x8 contiki-avr-atmega256rfr2.a(params.o)
                0x00000477                default_mac_address
 .progmem.data.__c.3506
                0x0000047f       0x6f contiki-avr-atmega256rfr2.a(print-stats.o)
 .progmem.data.__c.2435
                0x000004ee        0x3 contiki-avr-atmega256rfr2.a(uip-debug.o)
 .progmem.data.__c.2433
                0x000004f1        0x2 contiki-avr-atmega256rfr2.a(uip-debug.o)
 .progmem.data.__c.2431
                0x000004f3        0x3 contiki-avr-atmega256rfr2.a(uip-debug.o)
                0x000004f6                . = ALIGN (0x2)
 *(.jumptables)
 *(.jumptables*)
 *(.lowtext)
 *(.lowtext*)
                0x000004f6                __ctors_start = .
 *(.ctors)
                0x000004f6                __ctors_end = .
                0x000004f6                __dtors_start = .
 *(.dtors)
                0x000004f6                __dtors_end = .
 SORT(*)(.ctors)
 SORT(*)(.dtors)
 *(.init0)
 .init0         0x000004f6        0x0 /usr/local/bin/../lib/gcc/avr/4.8.1/../../../../avr/lib/avr6/crtm256rfr2.o
                0x000004f6                __init
 *(.init0)
 *(.init1)
 *(.init1)
 *(.init2)
 .init2         0x000004f6       0x10 /usr/local/bin/../lib/gcc/avr/4.8.1/../../../../avr/lib/avr6/crtm256rfr2.o
 *(.init2)
 *(.init3)
 *(.init3)
 *(.init4)
 .init4         0x00000506       0x1a /usr/local/bin/../lib/gcc/avr/4.8.1/avr6/libgcc.a(_copy_data.o)
                0x00000506                __do_copy_data
 .init4         0x00000520       0x10 /usr/local/bin/../lib/gcc/avr/4.8.1/avr6/libgcc.a(_clear_bss.o)
                0x00000520                __do_clear_bss
 *(.init4)
 *(.init5)
 *(.init5)
 *(.init6)
 *(.init6)
 *(.init7)
 *(.init7)
 *(.init8)
 *(.init8)
 *(.init9)
 .init9         0x00000530        0x8 /usr/local/bin/../lib/gcc/avr/4.8.1/../../../../avr/lib/avr6/crtm256rfr2.o
 *(.init9)
 *(.text)
 .text          0x00000538        0x4 /usr/local/bin/../lib/gcc/avr/4.8.1/../../../../avr/lib/avr6/crtm256rfr2.o
                0x00000538                __vector_38
                0x00000538                __vector_22
                0x00000538                __vector_28
                0x00000538                __vector_67
                0x00000538                __vector_1
                0x00000538                __vector_75
                0x00000538                __vector_71
                0x00000538                __vector_34
                0x00000538                __vector_24
                0x00000538                __vector_12
                0x00000538                __vector_55
                0x00000538                __vector_69
                0x00000538                __vector_46
                0x00000538                __bad_interrupt
                0x00000538                __vector_72
                0x00000538                __vector_6
                0x00000538                __vector_31
                0x00000538                __vector_35
                0x00000538                __vector_74
                0x00000538                __vector_39
                0x00000538                __vector_3
                0x00000538                __vector_23
                0x00000538                __vector_68
                0x00000538                __vector_30
                0x00000538                __vector_73
                0x00000538                __vector_45
                0x00000538                __vector_11
                0x00000538                __vector_54
                0x00000538                __vector_13
                0x00000538                __vector_17
                0x00000538                __vector_19
                0x00000538                __vector_56
                0x00000538                __vector_7
                0x00000538                __vector_49
                0x00000538                __vector_41
                0x00000538                __vector_43
                0x00000538                __vector_27
                0x00000538                __vector_5
                0x00000538                __vector_33
                0x00000538                __vector_76
                0x00000538                __vector_47
                0x00000538                __vector_52
                0x00000538                __vector_37
                0x00000538                __vector_4
                0x00000538                __vector_44
                0x00000538                __vector_51
                0x00000538                __vector_9
                0x00000538                __vector_2
                0x00000538                __vector_15
                0x00000538                __vector_66
                0x00000538                __vector_70
                0x00000538                __vector_29
                0x00000538                __vector_40
                0x00000538                __vector_8
                0x00000538                __vector_26
                0x00000538                __vector_48
                0x00000538                __vector_14
                0x00000538                __vector_53
                0x00000538                __vector_10
                0x00000538                __vector_50
                0x00000538                __vector_16
                0x00000538                __vector_18
                0x00000538                __vector_20
                0x00000538                __vector_42
                0x00000538                __vector_65
                0x0000053c                . = ALIGN (0x2)
 *(.text.*)
 .text.receiver
                0x0000053c       0x78 unicast-receiver.co
 .text.process_thread_unicast_receiver_process
                0x000005b4      0x174 unicast-receiver.co
 .text.purge_registrations
                0x00000728       0x88 contiki-avr-atmega256rfr2.a(servreg-hack.o)
 .text.servreg_hack_init
                0x000007b0       0x34 contiki-avr-atmega256rfr2.a(servreg-hack.o)
                0x000007b0                servreg_hack_init
 .text.servreg_hack_register
                0x000007e4       0xb8 contiki-avr-atmega256rfr2.a(servreg-hack.o)
                0x000007e4                servreg_hack_register
 .text.servreg_hack_list_head
                0x0000089c        0xc contiki-avr-atmega256rfr2.a(servreg-hack.o)
                0x0000089c                servreg_hack_list_head
 .text.process_thread_servreg_hack_process
                0x000008a8      0x2b8 contiki-avr-atmega256rfr2.a(servreg-hack.o)
 .text.ipaddr_add
                0x00000b60       0xc6 contiki-avr-atmega256rfr2.a(contiki-main.o)
 .text.rng_get_uint8
                0x00000c26       0x46 contiki-avr-atmega256rfr2.a(contiki-main.o)
                0x00000c26                rng_get_uint8
 .text.initialize
                0x00000c6c      0x2fc contiki-avr-atmega256rfr2.a(contiki-main.o)
                0x00000c6c                initialize
 .text.startup.main
                0x00000f68      0x240 contiki-avr-atmega256rfr2.a(contiki-main.o)
                0x00000f68                main
 .text.params_get_channel
                0x000011a8      0x10c contiki-avr-atmega256rfr2.a(params.o)
                0x000011a8                params_get_channel
 .text.params_get_eui64
                0x000012b4       0x14 contiki-avr-atmega256rfr2.a(params.o)
                0x000012b4                params_get_eui64
 .text.params_get_panid
                0x000012c8        0x8 contiki-avr-atmega256rfr2.a(params.o)
                0x000012c8                params_get_panid
 .text.params_get_panaddr
                0x000012d0        0x8 contiki-avr-atmega256rfr2.a(params.o)
                0x000012d0                params_get_panaddr
 .text.params_get_txpower
                0x000012d8        0x8 contiki-avr-atmega256rfr2.a(params.o)
                0x000012d8                params_get_txpower
 .text.ssd1306_reset_clear
                0x000012e0        0x6 contiki-avr-atmega256rfr2.a(ssd1306.o)
                0x000012e0                ssd1306_reset_clear
 .text.ssd1306_reset_set
                0x000012e6        0x6 contiki-avr-atmega256rfr2.a(ssd1306.o)
                0x000012e6                ssd1306_reset_set
 .text.ssd1306_sel_cmd
                0x000012ec        0x6 contiki-avr-atmega256rfr2.a(ssd1306.o)
                0x000012ec                ssd1306_sel_cmd
 .text.spi_deselect_device
                0x000012f2        0x6 contiki-avr-atmega256rfr2.a(ssd1306.o)
                0x000012f2                spi_deselect_device
 .text.spi_select_device
                0x000012f8        0x6 contiki-avr-atmega256rfr2.a(ssd1306.o)
                0x000012f8                spi_select_device
 .text.spi_write_single
                0x000012fe        0xa contiki-avr-atmega256rfr2.a(ssd1306.o)
                0x000012fe                spi_write_single
 .text.ssd1306_write_command
                0x00001308       0x2c contiki-avr-atmega256rfr2.a(ssd1306.o)
                0x00001308                ssd1306_write_command
 .text.ssd1306_hard_reset
                0x00001334       0x18 contiki-avr-atmega256rfr2.a(ssd1306.o)
                0x00001334                ssd1306_hard_reset
 .text.ssd1306_display_on
                0x0000134c        0x6 contiki-avr-atmega256rfr2.a(ssd1306.o)
                0x0000134c                ssd1306_display_on
 .text.ssd1306_set_contrast
                0x00001352       0x16 contiki-avr-atmega256rfr2.a(ssd1306.o)
                0x00001352                ssd1306_set_contrast
 .text.ssd1306_display_invert_disable
                0x00001368        0x6 contiki-avr-atmega256rfr2.a(ssd1306.o)
                0x00001368                ssd1306_display_invert_disable
 .text.ssd1306_spi_init
                0x0000136e       0x14 contiki-avr-atmega256rfr2.a(ssd1306.o)
                0x0000136e                ssd1306_spi_init
 .text.ssd1306_interface_init
                0x00001382        0x8 contiki-avr-atmega256rfr2.a(ssd1306.o)
                0x00001382                ssd1306_interface_init
 .text.ssd1306_init
                0x0000138a       0x82 contiki-avr-atmega256rfr2.a(ssd1306.o)
                0x0000138a                ssd1306_init
 .text.clock_init
                0x0000140c       0x20 contiki-avr-atmega256rfr2.a(clock.o)
                0x0000140c                clock_init
 .text.clock_time
                0x0000142c       0x18 contiki-avr-atmega256rfr2.a(clock.o)
                0x0000142c                clock_time
 .text.clock_seconds
                0x00001444       0x34 contiki-avr-atmega256rfr2.a(clock.o)
                0x00001444                clock_seconds
 .text.clock_delay_usec
                0x00001478       0x1a contiki-avr-atmega256rfr2.a(clock.o)
                0x00001478                clock_delay_usec
 .text.__vector_21
                0x00001492       0xe0 contiki-avr-atmega256rfr2.a(clock.o)
                0x00001492                __vector_21
 .text.__vector_25
                0x00001572       0x5e contiki-avr-atmega256rfr2.a(rs232.o)
                0x00001572                __vector_25
 .text.__vector_36
                0x000015d0       0x5e contiki-avr-atmega256rfr2.a(rs232.o)
                0x000015d0                __vector_36
 .text.rs232_init
                0x0000162e       0x40 contiki-avr-atmega256rfr2.a(rs232.o)
                0x0000162e                rs232_init
 .text.rs232_send
                0x0000166e       0x24 contiki-avr-atmega256rfr2.a(rs232.o)
                0x0000166e                rs232_send
 .text.rs232_stdout_putchar
                0x00001692       0x2a contiki-avr-atmega256rfr2.a(rs232.o)
                0x00001692                rs232_stdout_putchar
 .text.rs232_redirect_stdout
                0x000016bc       0x12 contiki-avr-atmega256rfr2.a(rs232.o)
                0x000016bc                rs232_redirect_stdout
 .text.watchdog_periodic
                0x000016ce        0x4 contiki-avr-atmega256rfr2.a(watchdog.o)
                0x000016ce                watchdog_periodic
 .text.random_init
                0x000016d2        0x4 contiki-avr-atmega256rfr2.a(random.o)
                0x000016d2                random_init
 .text.random_rand
                0x000016d6        0x4 contiki-avr-atmega256rfr2.a(random.o)
                0x000016d6                random_rand
 .text.get_value
                0x000016da        0x6 contiki-avr-atmega256rfr2.a(rf230bb.o)
 .text.set_value
                0x000016e0        0x6 contiki-avr-atmega256rfr2.a(rf230bb.o)
 .text.get_object
                0x000016e6        0x6 contiki-avr-atmega256rfr2.a(rf230bb.o)
 .text.set_object
                0x000016ec        0x6 contiki-avr-atmega256rfr2.a(rf230bb.o)
 .text.rf230_pending_packet
                0x000016f2        0x8 contiki-avr-atmega256rfr2.a(rf230bb.o)
 .text.radio_reset_state_machine
                0x000016fa       0x32 contiki-avr-atmega256rfr2.a(rf230bb.o)
 .text.set_txpower
                0x0000172c       0x1e contiki-avr-atmega256rfr2.a(rf230bb.o)
 .text.rf230_isidle
                0x0000174a       0x2c contiki-avr-atmega256rfr2.a(rf230bb.o)
 .text.rf230_waitidle
                0x00001776       0x12 contiki-avr-atmega256rfr2.a(rf230bb.o)
 .text.rf230_receiving_packet
                0x00001788       0x2a contiki-avr-atmega256rfr2.a(rf230bb.o)
 .text.radio_off
                0x000017b2      0x124 contiki-avr-atmega256rfr2.a(rf230bb.o)
 .text.rf230_off
                0x000018d6       0x16 contiki-avr-atmega256rfr2.a(rf230bb.o)
 .text.rf230_prepare
                0x000018ec       0x32 contiki-avr-atmega256rfr2.a(rf230bb.o)
 .text.radio_get_trx_state
                0x0000191e        0xc contiki-avr-atmega256rfr2.a(rf230bb.o)
                0x0000191e                radio_get_trx_state
 .text.radio_set_trx_state
                0x0000192a       0xbc contiki-avr-atmega256rfr2.a(rf230bb.o)
 .text.radio_on
                0x000019e6       0x6a contiki-avr-atmega256rfr2.a(rf230bb.o)
 .text.rf230_on
                0x00001a50       0x12 contiki-avr-atmega256rfr2.a(rf230bb.o)
 .text.rf230_cca
                0x00001a62      0x128 contiki-avr-atmega256rfr2.a(rf230bb.o)
 .text.rf230_warm_reset
                0x00001b8a       0x3e contiki-avr-atmega256rfr2.a(rf230bb.o)
                0x00001b8a                rf230_warm_reset
 .text.rf230_init
                0x00001bc8       0x76 contiki-avr-atmega256rfr2.a(rf230bb.o)
                0x00001bc8                rf230_init
 .text.rf230_get_channel
                0x00001c3e        0x6 contiki-avr-atmega256rfr2.a(rf230bb.o)
                0x00001c3e                rf230_get_channel
 .text.rf230_set_channel
                0x00001c44       0x2a contiki-avr-atmega256rfr2.a(rf230bb.o)
                0x00001c44                rf230_set_channel
 .text.rf230_set_pan_addr
                0x00001c6e       0x48 contiki-avr-atmega256rfr2.a(rf230bb.o)
                0x00001c6e                rf230_set_pan_addr
 .text.rf230_interrupt
                0x00001cb6       0x26 contiki-avr-atmega256rfr2.a(rf230bb.o)
                0x00001cb6                rf230_interrupt
 .text.rf230_read
                0x00001cdc       0xce contiki-avr-atmega256rfr2.a(rf230bb.o)
 .text.process_thread_rf230_process
                0x00001daa       0x8a contiki-avr-atmega256rfr2.a(rf230bb.o)
 .text.rf230_set_txpower
                0x00001e34        0x4 contiki-avr-atmega256rfr2.a(rf230bb.o)
                0x00001e34                rf230_set_txpower
 .text.rf230_get_txpower
                0x00001e38       0x18 contiki-avr-atmega256rfr2.a(rf230bb.o)
                0x00001e38                rf230_get_txpower
 .text.rf230_transmit
                0x00001e50      0x260 contiki-avr-atmega256rfr2.a(rf230bb.o)
 .text.rf230_send
                0x000020b0       0x32 contiki-avr-atmega256rfr2.a(rf230bb.o)
 .text.hal_init
                0x000020e2        0x2 contiki-avr-atmega256rfr2.a(halbb.o)
                0x000020e2                hal_init
 .text.hal_subregister_read
                0x000020e4       0x14 contiki-avr-atmega256rfr2.a(halbb.o)
                0x000020e4                hal_subregister_read
 .text.hal_subregister_write
                0x000020f8       0x36 contiki-avr-atmega256rfr2.a(halbb.o)
                0x000020f8                hal_subregister_write
 .text.hal_frame_read
                0x0000212e       0x54 contiki-avr-atmega256rfr2.a(halbb.o)
                0x0000212e                hal_frame_read
 .text.hal_frame_write
                0x00002182       0x22 contiki-avr-atmega256rfr2.a(halbb.o)
                0x00002182                hal_frame_write
 .text.__vector_60
                0x000021a4       0x80 contiki-avr-atmega256rfr2.a(halbb.o)
                0x000021a4                __vector_60
 .text.__vector_59
                0x00002224       0x14 contiki-avr-atmega256rfr2.a(halbb.o)
                0x00002224                __vector_59
 .text.__vector_57
                0x00002238       0x14 contiki-avr-atmega256rfr2.a(halbb.o)
                0x00002238                __vector_57
 .text.__vector_58
                0x0000224c       0x14 contiki-avr-atmega256rfr2.a(halbb.o)
                0x0000224c                __vector_58
 .text.__vector_64
                0x00002260       0x18 contiki-avr-atmega256rfr2.a(halbb.o)
                0x00002260                __vector_64
 .text.__vector_63
                0x00002278       0x18 contiki-avr-atmega256rfr2.a(halbb.o)
                0x00002278                __vector_63
 .text.__vector_62
                0x00002290       0x14 contiki-avr-atmega256rfr2.a(halbb.o)
                0x00002290                __vector_62
 .text.__vector_61
                0x000022a4       0x18 contiki-avr-atmega256rfr2.a(halbb.o)
                0x000022a4                __vector_61
 .text.autostart_start
                0x000022bc       0x1e contiki-avr-atmega256rfr2.a(autostart.o)
                0x000022bc                autostart_start
 .text.process_thread_ctimer_process
                0x000022da       0xc8 contiki-avr-atmega256rfr2.a(ctimer.o)
 .text.ctimer_init
                0x000023a2       0x18 contiki-avr-atmega256rfr2.a(ctimer.o)
                0x000023a2                ctimer_init
 .text.ctimer_set
                0x000023ba       0x5a contiki-avr-atmega256rfr2.a(ctimer.o)
                0x000023ba                ctimer_set
 .text.ctimer_reset
                0x00002414       0x48 contiki-avr-atmega256rfr2.a(ctimer.o)
                0x00002414                ctimer_reset
 .text.ctimer_stop
                0x0000245c       0x2e contiki-avr-atmega256rfr2.a(ctimer.o)
                0x0000245c                ctimer_stop
 .text.update_time
                0x0000248a       0x64 contiki-avr-atmega256rfr2.a(etimer.o)
 .text.etimer_request_poll
                0x000024ee        0x8 contiki-avr-atmega256rfr2.a(etimer.o)
                0x000024ee                etimer_request_poll
 .text.process_thread_etimer_process
                0x000024f6      0x106 contiki-avr-atmega256rfr2.a(etimer.o)
 .text.add_timer
                0x000025fc       0x5e contiki-avr-atmega256rfr2.a(etimer.o)
 .text.etimer_set
                0x0000265a       0x14 contiki-avr-atmega256rfr2.a(etimer.o)
                0x0000265a                etimer_set
 .text.etimer_reset
                0x0000266e       0x14 contiki-avr-atmega256rfr2.a(etimer.o)
                0x0000266e                etimer_reset
 .text.etimer_restart
                0x00002682       0x14 contiki-avr-atmega256rfr2.a(etimer.o)
                0x00002682                etimer_restart
 .text.etimer_expired
                0x00002696       0x16 contiki-avr-atmega256rfr2.a(etimer.o)
                0x00002696                etimer_expired
 .text.etimer_expiration_time
                0x000026ac       0x10 contiki-avr-atmega256rfr2.a(etimer.o)
                0x000026ac                etimer_expiration_time
 .text.etimer_pending
                0x000026bc       0x16 contiki-avr-atmega256rfr2.a(etimer.o)
                0x000026bc                etimer_pending
 .text.etimer_stop
                0x000026d2       0x4e contiki-avr-atmega256rfr2.a(etimer.o)
                0x000026d2                etimer_stop
 .text.call_process.part.0
                0x00002720       0x4e contiki-avr-atmega256rfr2.a(process.o)
 .text.call_process
                0x0000276e        0xc contiki-avr-atmega256rfr2.a(process.o)
 .text.exit_process
                0x0000277a       0xd8 contiki-avr-atmega256rfr2.a(process.o)
 .text.do_poll  0x00002852       0x3e contiki-avr-atmega256rfr2.a(process.o)
 .text.process_alloc_event
                0x00002890        0xe contiki-avr-atmega256rfr2.a(process.o)
                0x00002890                process_alloc_event
 .text.process_init
                0x0000289e       0x20 contiki-avr-atmega256rfr2.a(process.o)
                0x0000289e                process_init
 .text.process_run
                0x000028be       0xc6 contiki-avr-atmega256rfr2.a(process.o)
                0x000028be                process_run
 .text.process_post
                0x00002984       0x3c contiki-avr-atmega256rfr2.a(process.o)
                0x00002984                process_post
 .text.process_post_synch
                0x000029c0       0x1e contiki-avr-atmega256rfr2.a(process.o)
                0x000029c0                process_post_synch
 .text.process_start
                0x000029de       0x42 contiki-avr-atmega256rfr2.a(process.o)
                0x000029de                process_start
 .text.process_poll
                0x00002a20       0x18 contiki-avr-atmega256rfr2.a(process.o)
                0x00002a20                process_poll
 .text.rtimer_init
                0x00002a38        0x4 contiki-avr-atmega256rfr2.a(rtimer.o)
                0x00002a38                rtimer_init
 .text.rtimer_run_next
                0x00002a3c       0x3e contiki-avr-atmega256rfr2.a(rtimer.o)
                0x00002a3c                rtimer_run_next
 .text.timer_set
                0x00002a7a       0x18 contiki-avr-atmega256rfr2.a(timer.o)
                0x00002a7a                timer_set
 .text.timer_reset
                0x00002a92       0x14 contiki-avr-atmega256rfr2.a(timer.o)
                0x00002a92                timer_reset
 .text.timer_restart
                0x00002aa6       0x14 contiki-avr-atmega256rfr2.a(timer.o)
                0x00002aa6                timer_restart
 .text.timer_expired
                0x00002aba       0x30 contiki-avr-atmega256rfr2.a(timer.o)
                0x00002aba                timer_expired
 .text.list_init
                0x00002aea        0x8 contiki-avr-atmega256rfr2.a(list.o)
                0x00002aea                list_init
 .text.list_head
                0x00002af2        0x8 contiki-avr-atmega256rfr2.a(list.o)
                0x00002af2                list_head
 .text.list_tail
                0x00002afa       0x20 contiki-avr-atmega256rfr2.a(list.o)
                0x00002afa                list_tail
 .text.list_remove
                0x00002b1a       0x36 contiki-avr-atmega256rfr2.a(list.o)
                0x00002b1a                list_remove
 .text.list_add
                0x00002b50       0x32 contiki-avr-atmega256rfr2.a(list.o)
                0x00002b50                list_add
 .text.list_push
                0x00002b82       0x28 contiki-avr-atmega256rfr2.a(list.o)
                0x00002b82                list_push
 .text.list_length
                0x00002baa       0x1a contiki-avr-atmega256rfr2.a(list.o)
                0x00002baa                list_length
 .text.list_item_next
                0x00002bc4       0x12 contiki-avr-atmega256rfr2.a(list.o)
                0x00002bc4                list_item_next
 .text.memb_init
                0x00002bd6       0x3c contiki-avr-atmega256rfr2.a(memb.o)
                0x00002bd6                memb_init
 .text.memb_alloc
                0x00002c12       0x4a contiki-avr-atmega256rfr2.a(memb.o)
                0x00002c12                memb_alloc
 .text.memb_free
                0x00002c5c       0x4a contiki-avr-atmega256rfr2.a(memb.o)
                0x00002c5c                memb_free
 .text.memb_inmemb
                0x00002ca6       0x3a contiki-avr-atmega256rfr2.a(memb.o)
                0x00002ca6                memb_inmemb
 .text.memb_numfree
                0x00002ce0       0x34 contiki-avr-atmega256rfr2.a(memb.o)
                0x00002ce0                memb_numfree
 .text.print_stats
                0x00002d14      0x1c0 contiki-avr-atmega256rfr2.a(print-stats.o)
                0x00002d14                print_stats
 .text.chksum   0x00002ed4       0x4a contiki-avr-atmega256rfr2.a(uip6.o)
 .text.upper_layer_chksum
                0x00002f1e       0x74 contiki-avr-atmega256rfr2.a(uip6.o)
 .text.ext_hdr_options_process
                0x00002f92       0xd4 contiki-avr-atmega256rfr2.a(uip6.o)
 .text.uip_add32
                0x00003066       0x6e contiki-avr-atmega256rfr2.a(uip6.o)
                0x00003066                uip_add32
 .text.unlikely.uip_add_rcv_nxt
                0x000030d4       0x34 contiki-avr-atmega256rfr2.a(uip6.o)
 .text.uip_icmp6chksum
                0x00003108        0x6 contiki-avr-atmega256rfr2.a(uip6.o)
                0x00003108                uip_icmp6chksum
 .text.uip_tcpchksum
                0x0000310e        0x6 contiki-avr-atmega256rfr2.a(uip6.o)
                0x0000310e                uip_tcpchksum
 .text.uip_udpchksum
                0x00003114        0x6 contiki-avr-atmega256rfr2.a(uip6.o)
                0x00003114                uip_udpchksum
 .text.uip_init
                0x0000311a       0x64 contiki-avr-atmega256rfr2.a(uip6.o)
                0x0000311a                uip_init
 .text.remove_ext_hdr
                0x0000317e       0x6c contiki-avr-atmega256rfr2.a(uip6.o)
                0x0000317e                remove_ext_hdr
 .text.uip_udp_new
                0x000031ea       0xbc contiki-avr-atmega256rfr2.a(uip6.o)
                0x000031ea                uip_udp_new
 .text.uip_unlisten
                0x000032a6       0x34 contiki-avr-atmega256rfr2.a(uip6.o)
                0x000032a6                uip_unlisten
 .text.uip_process
                0x000032da     0x110c contiki-avr-atmega256rfr2.a(uip6.o)
                0x000032da                uip_process
 .text.uip_htonl
                0x000043e6        0x6 contiki-avr-atmega256rfr2.a(uip6.o)
                0x000043e6                uip_htonl
 .text.uip_ds6_list_loop
                0x000043ec       0x96 contiki-avr-atmega256rfr2.a(uip-ds6.o)
                0x000043ec                uip_ds6_list_loop
 .text.uip_ds6_prefix_add
                0x00004482       0xb6 contiki-avr-atmega256rfr2.a(uip-ds6.o)
                0x00004482                uip_ds6_prefix_add
 .text.uip_ds6_is_addr_onlink
                0x00004538       0x60 contiki-avr-atmega256rfr2.a(uip-ds6.o)
                0x00004538                uip_ds6_is_addr_onlink
 .text.uip_ds6_addr_lookup
                0x00004598       0x3a contiki-avr-atmega256rfr2.a(uip-ds6.o)
                0x00004598                uip_ds6_addr_lookup
 .text.uip_ds6_get_link_local
                0x000045d2       0x5a contiki-avr-atmega256rfr2.a(uip-ds6.o)
                0x000045d2                uip_ds6_get_link_local
 .text.uip_ds6_maddr_add
                0x0000462c       0x64 contiki-avr-atmega256rfr2.a(uip-ds6.o)
                0x0000462c                uip_ds6_maddr_add
 .text.uip_ds6_addr_add
                0x00004690      0x104 contiki-avr-atmega256rfr2.a(uip-ds6.o)
                0x00004690                uip_ds6_addr_add
 .text.uip_ds6_maddr_rm
                0x00004794        0xa contiki-avr-atmega256rfr2.a(uip-ds6.o)
                0x00004794                uip_ds6_maddr_rm
 .text.uip_ds6_maddr_lookup
                0x0000479e       0x3a contiki-avr-atmega256rfr2.a(uip-ds6.o)
                0x0000479e                uip_ds6_maddr_lookup
 .text.uip_ds6_addr_rm
                0x000047d8       0x76 contiki-avr-atmega256rfr2.a(uip-ds6.o)
                0x000047d8                uip_ds6_addr_rm
 .text.uip_ds6_periodic
                0x0000484e       0x5c contiki-avr-atmega256rfr2.a(uip-ds6.o)
                0x0000484e                uip_ds6_periodic
 .text.uip_ds6_set_addr_iid
                0x000048aa       0x1c contiki-avr-atmega256rfr2.a(uip-ds6.o)
                0x000048aa                uip_ds6_set_addr_iid
 .text.get_match_length
                0x000048c6       0x2a contiki-avr-atmega256rfr2.a(uip-ds6.o)
                0x000048c6                get_match_length
 .text.uip_ds6_select_src
                0x000048f0       0xdc contiki-avr-atmega256rfr2.a(uip-ds6.o)
                0x000048f0                uip_ds6_select_src
 .text.uip_ds6_compute_reachable_time
                0x000049cc       0x58 contiki-avr-atmega256rfr2.a(uip-ds6.o)
                0x000049cc                uip_ds6_compute_reachable_time
 .text.uip_ds6_init
                0x00004a24      0x1e2 contiki-avr-atmega256rfr2.a(uip-ds6.o)
                0x00004a24                uip_ds6_init
 .text.uip_ds6_nbr_rm
                0x00004c06       0x2e contiki-avr-atmega256rfr2.a(uip-ds6-nbr.o)
                0x00004c06                uip_ds6_nbr_rm
 .text.uip_ds6_neighbors_init
                0x00004c34       0x10 contiki-avr-atmega256rfr2.a(uip-ds6-nbr.o)
                0x00004c34                uip_ds6_neighbors_init
 .text.uip_ds6_nbr_add
                0x00004c44       0x86 contiki-avr-atmega256rfr2.a(uip-ds6-nbr.o)
                0x00004c44                uip_ds6_nbr_add
 .text.uip_ds6_nbr_get_ll
                0x00004cca        0xe contiki-avr-atmega256rfr2.a(uip-ds6-nbr.o)
                0x00004cca                uip_ds6_nbr_get_ll
 .text.uip_ds6_nbr_lookup
                0x00004cd8       0x56 contiki-avr-atmega256rfr2.a(uip-ds6-nbr.o)
                0x00004cd8                uip_ds6_nbr_lookup
 .text.uip_ds6_nbr_ll_lookup
                0x00004d2e        0xe contiki-avr-atmega256rfr2.a(uip-ds6-nbr.o)
                0x00004d2e                uip_ds6_nbr_ll_lookup
 .text.uip_ds6_nbr_ipaddr_from_lladdr
                0x00004d3c        0x4 contiki-avr-atmega256rfr2.a(uip-ds6-nbr.o)
                0x00004d3c                uip_ds6_nbr_ipaddr_from_lladdr
 .text.uip_ds6_nbr_lladdr_from_ipaddr
                0x00004d40       0x12 contiki-avr-atmega256rfr2.a(uip-ds6-nbr.o)
                0x00004d40                uip_ds6_nbr_lladdr_from_ipaddr
 .text.uip_ds6_link_neighbor_callback
                0x00004d52       0x48 contiki-avr-atmega256rfr2.a(uip-ds6-nbr.o)
                0x00004d52                uip_ds6_link_neighbor_callback
 .text.uip_ds6_neighbor_periodic
                0x00004d9a      0x17a contiki-avr-atmega256rfr2.a(uip-ds6-nbr.o)
                0x00004d9a                uip_ds6_neighbor_periodic
 .text.call_route_callback
                0x00004f14       0x64 contiki-avr-atmega256rfr2.a(uip-ds6-route.o)
 .text.uip_ds6_route_init
                0x00004f78       0x34 contiki-avr-atmega256rfr2.a(uip-ds6-route.o)
                0x00004f78                uip_ds6_route_init
 .text.uip_ds6_route_nexthop
                0x00004fac       0x1c contiki-avr-atmega256rfr2.a(uip-ds6-route.o)
                0x00004fac                uip_ds6_route_nexthop
 .text.uip_ds6_route_head
                0x00004fc8        0x8 contiki-avr-atmega256rfr2.a(uip-ds6-route.o)
                0x00004fc8                uip_ds6_route_head
 .text.uip_ds6_route_next
                0x00004fd0        0xe contiki-avr-atmega256rfr2.a(uip-ds6-route.o)
                0x00004fd0                uip_ds6_route_next
 .text.uip_ds6_route_lookup
                0x00004fde       0x96 contiki-avr-atmega256rfr2.a(uip-ds6-route.o)
                0x00004fde                uip_ds6_route_lookup
 .text.uip_ds6_route_rm
                0x00005074       0xce contiki-avr-atmega256rfr2.a(uip-ds6-route.o)
                0x00005074                uip_ds6_route_rm
 .text.rm_routelist
                0x00005142       0x3e contiki-avr-atmega256rfr2.a(uip-ds6-route.o)
 .text.rm_routelist_callback
                0x00005180        0x4 contiki-avr-atmega256rfr2.a(uip-ds6-route.o)
 .text.uip_ds6_route_add
                0x00005184      0x142 contiki-avr-atmega256rfr2.a(uip-ds6-route.o)
                0x00005184                uip_ds6_route_add
 .text.uip_ds6_defrt_rm
                0x000052c6       0x5c contiki-avr-atmega256rfr2.a(uip-ds6-route.o)
                0x000052c6                uip_ds6_defrt_rm
 .text.uip_ds6_defrt_lookup
                0x00005322       0x44 contiki-avr-atmega256rfr2.a(uip-ds6-route.o)
                0x00005322                uip_ds6_defrt_lookup
 .text.uip_ds6_defrt_add
                0x00005366       0x8c contiki-avr-atmega256rfr2.a(uip-ds6-route.o)
                0x00005366                uip_ds6_defrt_add
 .text.uip_ds6_defrt_choose
                0x000053f2       0x48 contiki-avr-atmega256rfr2.a(uip-ds6-route.o)
                0x000053f2                uip_ds6_defrt_choose
 .text.uip_ds6_defrt_periodic
                0x0000543a       0x3a contiki-avr-atmega256rfr2.a(uip-ds6-route.o)
                0x0000543a                uip_ds6_defrt_periodic
 .text.echo_reply_input
                0x00005474      0x15a contiki-avr-atmega256rfr2.a(uip-icmp6.o)
 .text.echo_request_input
                0x000055ce      0x14a contiki-avr-atmega256rfr2.a(uip-icmp6.o)
 .text.uip_icmp6_input
                0x00005718       0x4e contiki-avr-atmega256rfr2.a(uip-icmp6.o)
                0x00005718                uip_icmp6_input
 .text.uip_icmp6_register_input_handler
                0x00005766        0xa contiki-avr-atmega256rfr2.a(uip-icmp6.o)
                0x00005766                uip_icmp6_register_input_handler
 .text.uip_icmp6_error_output
                0x00005770      0x1cc contiki-avr-atmega256rfr2.a(uip-icmp6.o)
                0x00005770                uip_icmp6_error_output
 .text.uip_icmp6_send
                0x0000593c       0xb0 contiki-avr-atmega256rfr2.a(uip-icmp6.o)
                0x0000593c                uip_icmp6_send
 .text.uip_icmp6_init
                0x000059ec       0x10 contiki-avr-atmega256rfr2.a(uip-icmp6.o)
                0x000059ec                uip_icmp6_init
 .text.na_input
                0x000059fc      0x28e contiki-avr-atmega256rfr2.a(uip-nd6.o)
 .text.ns_input
                0x00005c8a      0x360 contiki-avr-atmega256rfr2.a(uip-nd6.o)
 .text.uip_nd6_ns_output
                0x00005fea      0x200 contiki-avr-atmega256rfr2.a(uip-nd6.o)
                0x00005fea                uip_nd6_ns_output
 .text.uip_nd6_init
                0x000061ea       0x10 contiki-avr-atmega256rfr2.a(uip-nd6.o)
                0x000061ea                uip_nd6_init
 .text.process_thread_simple_udp_process
                0x000061fa       0xe2 contiki-avr-atmega256rfr2.a(simple-udp.o)
 .text.simple_udp_register
                0x000062dc       0xba contiki-avr-atmega256rfr2.a(simple-udp.o)
                0x000062dc                simple_udp_register
 .text.start_periodic_tcp_timer
                0x00006396       0x16 contiki-avr-atmega256rfr2.a(tcpip.o)
 .text.tcpip_output
                0x000063ac       0x12 contiki-avr-atmega256rfr2.a(tcpip.o)
                0x000063ac                tcpip_output
 .text.tcpip_set_outputfunc
                0x000063be        0xa contiki-avr-atmega256rfr2.a(tcpip.o)
                0x000063be                tcpip_set_outputfunc
 .text.udp_new  0x000063c8       0x26 contiki-avr-atmega256rfr2.a(tcpip.o)
                0x000063c8                udp_new
 .text.udp_broadcast_new
                0x000063ee       0x6e contiki-avr-atmega256rfr2.a(tcpip.o)
                0x000063ee                udp_broadcast_new
 .text.tcpip_icmp6_call
                0x0000645c       0x2e contiki-avr-atmega256rfr2.a(tcpip.o)
                0x0000645c                tcpip_icmp6_call
 .text.tcpip_input
                0x0000648a       0x1c contiki-avr-atmega256rfr2.a(tcpip.o)
                0x0000648a                tcpip_input
 .text.tcpip_ipv6_output
                0x000064a6      0x274 contiki-avr-atmega256rfr2.a(tcpip.o)
                0x000064a6                tcpip_ipv6_output
 .text.process_thread_tcpip_process
                0x0000671a      0x218 contiki-avr-atmega256rfr2.a(tcpip.o)
 .text.tcpip_uipcall
                0x00006932       0x8a contiki-avr-atmega256rfr2.a(tcpip.o)
                0x00006932                tcpip_uipcall
 .text.uip_debug_ipaddr_print
                0x000069bc       0xe6 contiki-avr-atmega256rfr2.a(uip-debug.o)
                0x000069bc                uip_debug_ipaddr_print
 .text.packet_timedout
                0x00006aa2       0x1c contiki-avr-atmega256rfr2.a(uip-packetqueue)
 .text.uip_packetqueue_new
                0x00006abe        0x8 contiki-avr-atmega256rfr2.a(uip-packetqueue)
                0x00006abe                uip_packetqueue_new
 .text.uip_packetqueue_alloc
                0x00006ac6       0x5e contiki-avr-atmega256rfr2.a(uip-packetqueue)
                0x00006ac6                uip_packetqueue_alloc
 .text.uip_packetqueue_free
                0x00006b24       0x2c contiki-avr-atmega256rfr2.a(uip-packetqueue)
                0x00006b24                uip_packetqueue_free
 .text.uip_packetqueue_buf
                0x00006b50       0x14 contiki-avr-atmega256rfr2.a(uip-packetqueue)
                0x00006b50                uip_packetqueue_buf
 .text.uip_packetqueue_buflen
                0x00006b64       0x1c contiki-avr-atmega256rfr2.a(uip-packetqueue)
                0x00006b64                uip_packetqueue_buflen
 .text.uip_packetqueue_set_buflen
                0x00006b80       0x16 contiki-avr-atmega256rfr2.a(uip-packetqueue)
                0x00006b80                uip_packetqueue_set_buflen
 .text.uip_split_output
                0x00006b96       0xf2 contiki-avr-atmega256rfr2.a(uip-split.o)
                0x00006b96                uip_split_output
 .text.uip_udp_packet_send
                0x00006c88       0x40 contiki-avr-atmega256rfr2.a(uip-udp-packet.)
                0x00006c88                uip_udp_packet_send
 .text.rpl_get_mode
                0x00006cc8        0xa contiki-avr-atmega256rfr2.a(rpl.o)
                0x00006cc8                rpl_get_mode
 .text.rpl_purge_routes
                0x00006cd2       0xca contiki-avr-atmega256rfr2.a(rpl.o)
                0x00006cd2                rpl_purge_routes
 .text.rpl_remove_routes
                0x00006d9c       0x2c contiki-avr-atmega256rfr2.a(rpl.o)
                0x00006d9c                rpl_remove_routes
 .text.rpl_remove_routes_by_nexthop
                0x00006dc8       0x56 contiki-avr-atmega256rfr2.a(rpl.o)
                0x00006dc8                rpl_remove_routes_by_nexthop
 .text.rpl_add_route
                0x00006e1e       0x46 contiki-avr-atmega256rfr2.a(rpl.o)
                0x00006e1e                rpl_add_route
 .text.rpl_link_neighbor_callback
                0x00006e64       0xa2 contiki-avr-atmega256rfr2.a(rpl.o)
                0x00006e64                rpl_link_neighbor_callback
 .text.rpl_ipv6_neighbor_callback
                0x00006f06       0x28 contiki-avr-atmega256rfr2.a(rpl.o)
                0x00006f06                rpl_ipv6_neighbor_callback
 .text.rpl_init
                0x00006f2e       0x78 contiki-avr-atmega256rfr2.a(rpl.o)
                0x00006f2e                rpl_init
 .text.lollipop_greater_than
                0x00006fa6       0x48 contiki-avr-atmega256rfr2.a(rpl-dag.o)
 .text.rpl_set_preferred_parent
                0x00006fee       0x3e contiki-avr-atmega256rfr2.a(rpl-dag.o)
 .text.set_ip_from_prefix
                0x0000702c       0x38 contiki-avr-atmega256rfr2.a(rpl-dag.o)
 .text.check_prefix
                0x00007064       0xb4 contiki-avr-atmega256rfr2.a(rpl-dag.o)
 .text.find_parent_any_dag_any_instance
                0x00007118       0x12 contiki-avr-atmega256rfr2.a(rpl-dag.o)
 .text.rpl_get_nbr
                0x0000712a       0x22 contiki-avr-atmega256rfr2.a(rpl-dag.o)
                0x0000712a                rpl_get_nbr
 .text.rpl_dag_init
                0x0000714c        0xc contiki-avr-atmega256rfr2.a(rpl-dag.o)
                0x0000714c                rpl_dag_init
 .text.rpl_get_parent
                0x00007158        0xa contiki-avr-atmega256rfr2.a(rpl-dag.o)
                0x00007158                rpl_get_parent
 .text.rpl_get_parent_ipaddr
                0x00007162        0xe contiki-avr-atmega256rfr2.a(rpl-dag.o)
                0x00007162                rpl_get_parent_ipaddr
 .text.rpl_set_prefix
                0x00007170       0xb4 contiki-avr-atmega256rfr2.a(rpl-dag.o)
                0x00007170                rpl_set_prefix
 .text.rpl_set_default_route
                0x00007224       0x7c contiki-avr-atmega256rfr2.a(rpl-dag.o)
                0x00007224                rpl_set_default_route
 .text.rpl_alloc_instance
                0x000072a0       0x2a contiki-avr-atmega256rfr2.a(rpl-dag.o)
                0x000072a0                rpl_alloc_instance
 .text.rpl_add_parent
                0x000072ca       0x72 contiki-avr-atmega256rfr2.a(rpl-dag.o)
                0x000072ca                rpl_add_parent
 .text.rpl_find_parent
                0x0000733c       0x2a contiki-avr-atmega256rfr2.a(rpl-dag.o)
                0x0000733c                rpl_find_parent
 .text.rpl_find_parent_any_dag
                0x00007366       0x36 contiki-avr-atmega256rfr2.a(rpl-dag.o)
                0x00007366                rpl_find_parent_any_dag
 .text.rpl_select_parent
                0x0000739c       0x8e contiki-avr-atmega256rfr2.a(rpl-dag.o)
                0x0000739c                rpl_select_parent
 .text.rpl_select_dag
                0x0000742a      0x248 contiki-avr-atmega256rfr2.a(rpl-dag.o)
                0x0000742a                rpl_select_dag
 .text.rpl_nullify_parent
                0x00007672       0x70 contiki-avr-atmega256rfr2.a(rpl-dag.o)
                0x00007672                rpl_nullify_parent
 .text.rpl_remove_parent
                0x000076e2       0x18 contiki-avr-atmega256rfr2.a(rpl-dag.o)
                0x000076e2                rpl_remove_parent
 .text.nbr_callback
                0x000076fa        0x4 contiki-avr-atmega256rfr2.a(rpl-dag.o)
 .text.remove_parents.constprop.4
                0x000076fe       0x3e contiki-avr-atmega256rfr2.a(rpl-dag.o)
 .text.rpl_free_dag
                0x0000773c       0x34 contiki-avr-atmega256rfr2.a(rpl-dag.o)
                0x0000773c                rpl_free_dag
 .text.rpl_free_instance
                0x00007770       0x88 contiki-avr-atmega256rfr2.a(rpl-dag.o)
                0x00007770                rpl_free_instance
 .text.rpl_move_parent
                0x000077f8       0x7c contiki-avr-atmega256rfr2.a(rpl-dag.o)
                0x000077f8                rpl_move_parent
 .text.rpl_get_any_dag
                0x00007874       0x1e contiki-avr-atmega256rfr2.a(rpl-dag.o)
                0x00007874                rpl_get_any_dag
 .text.rpl_get_instance
                0x00007892       0x1c contiki-avr-atmega256rfr2.a(rpl-dag.o)
                0x00007892                rpl_get_instance
 .text.get_dag  0x000078ae       0x6a contiki-avr-atmega256rfr2.a(rpl-dag.o)
 .text.rpl_repair_root
                0x00007918       0x52 contiki-avr-atmega256rfr2.a(rpl-dag.o)
                0x00007918                rpl_repair_root
 .text.rpl_alloc_dag
                0x0000796a       0x5e contiki-avr-atmega256rfr2.a(rpl-dag.o)
                0x0000796a                rpl_alloc_dag
 .text.rpl_set_root
                0x000079c8      0x138 contiki-avr-atmega256rfr2.a(rpl-dag.o)
                0x000079c8                rpl_set_root
 .text.rpl_find_of
                0x00007b00       0x1a contiki-avr-atmega256rfr2.a(rpl-dag.o)
                0x00007b00                rpl_find_of
 .text.rpl_join_instance
                0x00007b1a      0x1e4 contiki-avr-atmega256rfr2.a(rpl-dag.o)
                0x00007b1a                rpl_join_instance
 .text.rpl_local_repair
                0x00007cfe       0x9e contiki-avr-atmega256rfr2.a(rpl-dag.o)
                0x00007cfe                rpl_local_repair
 .text.rpl_process_parent_event
                0x00007d9c       0xd8 contiki-avr-atmega256rfr2.a(rpl-dag.o)
                0x00007d9c                rpl_process_parent_event
 .text.rpl_add_dag
                0x00007e74      0x178 contiki-avr-atmega256rfr2.a(rpl-dag.o)
                0x00007e74                rpl_add_dag
 .text.rpl_recalculate_ranks
                0x00007fec       0x48 contiki-avr-atmega256rfr2.a(rpl-dag.o)
                0x00007fec                rpl_recalculate_ranks
 .text.rpl_process_dio
                0x00008034      0x40e contiki-avr-atmega256rfr2.a(rpl-dag.o)
                0x00008034                rpl_process_dio
 .text.rpl_lock_parent
                0x00008442        0xa contiki-avr-atmega256rfr2.a(rpl-dag.o)
                0x00008442                rpl_lock_parent
 .text.rpl_verify_header
                0x0000844c       0xc6 contiki-avr-atmega256rfr2.a(rpl-ext-header.)
                0x0000844c                rpl_verify_header
 .text.rpl_update_header_empty
                0x00008512      0x166 contiki-avr-atmega256rfr2.a(rpl-ext-header.)
                0x00008512                rpl_update_header_empty
 .text.rpl_update_header_final
                0x00008678       0xd4 contiki-avr-atmega256rfr2.a(rpl-ext-header.)
                0x00008678                rpl_update_header_final
 .text.rpl_invert_header
                0x0000874c       0x86 contiki-avr-atmega256rfr2.a(rpl-ext-header.)
                0x0000874c                rpl_invert_header
 .text.rpl_insert_header
                0x000087d2       0x1a contiki-avr-atmega256rfr2.a(rpl-ext-header.)
                0x000087d2                rpl_insert_header
 .text.get32    0x000087ec       0x1c contiki-avr-atmega256rfr2.a(rpl-icmp6.o)
 .text.set32    0x00008808       0x10 contiki-avr-atmega256rfr2.a(rpl-icmp6.o)
 .text.get16    0x00008818       0x10 contiki-avr-atmega256rfr2.a(rpl-icmp6.o)
 .text.set16    0x00008828        0xc contiki-avr-atmega256rfr2.a(rpl-icmp6.o)
 .text.dao_ack_input
                0x00008834        0xa contiki-avr-atmega256rfr2.a(rpl-icmp6.o)
 .text.dio_input
                0x0000883e      0x354 contiki-avr-atmega256rfr2.a(rpl-icmp6.o)
 .text.dis_output
                0x00008b92       0x74 contiki-avr-atmega256rfr2.a(rpl-icmp6.o)
                0x00008b92                dis_output
 .text.dio_output
                0x00008c06      0x310 contiki-avr-atmega256rfr2.a(rpl-icmp6.o)
                0x00008c06                dio_output
 .text.dis_input
                0x00008f16       0x30 contiki-avr-atmega256rfr2.a(rpl-icmp6.o)
 .text.dao_output_target
                0x00008f46      0x11e contiki-avr-atmega256rfr2.a(rpl-icmp6.o)
                0x00008f46                dao_output_target
 .text.dao_output
                0x00009064       0x88 contiki-avr-atmega256rfr2.a(rpl-icmp6.o)
                0x00009064                dao_output
 .text.dao_ack_output
                0x000090ec       0x36 contiki-avr-atmega256rfr2.a(rpl-icmp6.o)
                0x000090ec                dao_ack_output
 .text.dao_input
                0x00009122      0x35c contiki-avr-atmega256rfr2.a(rpl-icmp6.o)
 .text.rpl_icmp6_register_handlers
                0x0000947e       0x20 contiki-avr-atmega256rfr2.a(rpl-icmp6.o)
                0x0000947e                rpl_icmp6_register_handlers
 .text.reset    0x0000949e        0x2 contiki-avr-atmega256rfr2.a(rpl-mrhof.o)
 .text.update_metric_container
                0x000094a0        0x6 contiki-avr-atmega256rfr2.a(rpl-mrhof.o)
 .text.calculate_rank
                0x000094a6       0x54 contiki-avr-atmega256rfr2.a(rpl-mrhof.o)
 .text.neighbor_link_callback
                0x000094fa       0xae contiki-avr-atmega256rfr2.a(rpl-mrhof.o)
 .text.best_dag
                0x000095a8       0x40 contiki-avr-atmega256rfr2.a(rpl-mrhof.o)
 .text.best_parent
                0x000095e8       0xa6 contiki-avr-atmega256rfr2.a(rpl-mrhof.o)
 .text.new_dio_interval
                0x0000968e       0x9c contiki-avr-atmega256rfr2.a(rpl-timers.o)
 .text.handle_periodic_timer
                0x0000972a       0x46 contiki-avr-atmega256rfr2.a(rpl-timers.o)
 .text.set_dao_lifetime_timer
                0x00009770       0x5a contiki-avr-atmega256rfr2.a(rpl-timers.o)
 .text.handle_dio_timer
                0x000097ca       0xb4 contiki-avr-atmega256rfr2.a(rpl-timers.o)
 .text.schedule_dao
                0x0000987e       0x80 contiki-avr-atmega256rfr2.a(rpl-timers.o)
 .text.handle_dao_timer
                0x000098fe       0x7e contiki-avr-atmega256rfr2.a(rpl-timers.o)
 .text.rpl_reset_periodic_timer
                0x0000997c       0x3a contiki-avr-atmega256rfr2.a(rpl-timers.o)
                0x0000997c                rpl_reset_periodic_timer
 .text.rpl_reset_dio_timer
                0x000099b6       0x20 contiki-avr-atmega256rfr2.a(rpl-timers.o)
                0x000099b6                rpl_reset_dio_timer
 .text.rpl_schedule_dao
                0x000099d6        0x8 contiki-avr-atmega256rfr2.a(rpl-timers.o)
                0x000099d6                rpl_schedule_dao
 .text.send_packet
                0x000099de        0xa contiki-avr-atmega256rfr2.a(nullmac.o)
 .text.packet_input
                0x000099e8        0xa contiki-avr-atmega256rfr2.a(nullmac.o)
 .text.on       0x000099f2        0xa contiki-avr-atmega256rfr2.a(nullmac.o)
 .text.off      0x000099fc        0xa contiki-avr-atmega256rfr2.a(nullmac.o)
 .text.channel_check_interval
                0x00009a06        0x6 contiki-avr-atmega256rfr2.a(nullmac.o)
 .text.init     0x00009a0c        0x2 contiki-avr-atmega256rfr2.a(nullmac.o)
 .text.on       0x00009a0e        0xa contiki-avr-atmega256rfr2.a(nullrdc.o)
 .text.channel_check_interval
                0x00009a18        0x6 contiki-avr-atmega256rfr2.a(nullrdc.o)
 .text.init     0x00009a1e        0x4 contiki-avr-atmega256rfr2.a(nullrdc.o)
 .text.send_one_packet
                0x00009a22       0x98 contiki-avr-atmega256rfr2.a(nullrdc.o)
 .text.send_list
                0x00009aba       0x40 contiki-avr-atmega256rfr2.a(nullrdc.o)
 .text.send_packet
                0x00009afa        0x4 contiki-avr-atmega256rfr2.a(nullrdc.o)
 .text.off      0x00009afe       0x18 contiki-avr-atmega256rfr2.a(nullrdc.o)
 .text.packet_input
                0x00009b16       0x3c contiki-avr-atmega256rfr2.a(nullrdc.o)
 .text.linkaddr_copy
                0x00009b52       0x10 contiki-avr-atmega256rfr2.a(linkaddr.o)
                0x00009b52                linkaddr_copy
 .text.linkaddr_cmp
                0x00009b62       0x18 contiki-avr-atmega256rfr2.a(linkaddr.o)
                0x00009b62                linkaddr_cmp
 .text.linkaddr_set_node_addr
                0x00009b7a        0xa contiki-avr-atmega256rfr2.a(linkaddr.o)
                0x00009b7a                linkaddr_set_node_addr
 .text.index_from_key
                0x00009b84       0x32 contiki-avr-atmega256rfr2.a(nbr-table.o)
 .text.nbr_set_bit
                0x00009bb6       0x66 contiki-avr-atmega256rfr2.a(nbr-table.o)
 .text.index_from_lladdr
                0x00009c1c       0x5a contiki-avr-atmega256rfr2.a(nbr-table.o)
 .text.key_from_item
                0x00009c76       0x48 contiki-avr-atmega256rfr2.a(nbr-table.o)
 .text.item_from_key
                0x00009cbe       0x3e contiki-avr-atmega256rfr2.a(nbr-table.o)
 .text.nbr_get_bit.constprop.0
                0x00009cfc       0x4a contiki-avr-atmega256rfr2.a(nbr-table.o)
 .text.nbr_table_register
                0x00009d46       0x40 contiki-avr-atmega256rfr2.a(nbr-table.o)
                0x00009d46                nbr_table_register
 .text.nbr_table_next
                0x00009d86       0x3e contiki-avr-atmega256rfr2.a(nbr-table.o)
                0x00009d86                nbr_table_next
 .text.nbr_table_head
                0x00009dc4       0x44 contiki-avr-atmega256rfr2.a(nbr-table.o)
                0x00009dc4                nbr_table_head
 .text.nbr_table_add_lladdr
                0x00009e08      0x1c0 contiki-avr-atmega256rfr2.a(nbr-table.o)
                0x00009e08                nbr_table_add_lladdr
 .text.nbr_table_get_from_lladdr
                0x00009fc8       0x5e contiki-avr-atmega256rfr2.a(nbr-table.o)
                0x00009fc8                nbr_table_get_from_lladdr
 .text.nbr_table_remove
                0x0000a026       0x42 contiki-avr-atmega256rfr2.a(nbr-table.o)
                0x0000a026                nbr_table_remove
 .text.nbr_table_lock
                0x0000a068       0x10 contiki-avr-atmega256rfr2.a(nbr-table.o)
                0x0000a068                nbr_table_lock
 .text.nbr_table_unlock
                0x0000a078       0x10 contiki-avr-atmega256rfr2.a(nbr-table.o)
                0x0000a078                nbr_table_unlock
 .text.nbr_table_get_lladdr
                0x0000a088       0x12 contiki-avr-atmega256rfr2.a(nbr-table.o)
                0x0000a088                nbr_table_get_lladdr
 .text.netstack_init
                0x0000a09a       0x28 contiki-avr-atmega256rfr2.a(netstack.o)
                0x0000a09a                netstack_init
 .text.packetbuf_copyto_hdr
                0x0000a0c2       0x24 contiki-avr-atmega256rfr2.a(packetbuf.o)
                0x0000a0c2                packetbuf_copyto_hdr
 .text.packetbuf_copyto
                0x0000a0e6       0x7a contiki-avr-atmega256rfr2.a(packetbuf.o)
                0x0000a0e6                packetbuf_copyto
 .text.packetbuf_hdrreduce
                0x0000a160       0x3a contiki-avr-atmega256rfr2.a(packetbuf.o)
                0x0000a160                packetbuf_hdrreduce
 .text.packetbuf_set_datalen
                0x0000a19a        0xa contiki-avr-atmega256rfr2.a(packetbuf.o)
                0x0000a19a                packetbuf_set_datalen
 .text.packetbuf_dataptr
                0x0000a1a4        0xe contiki-avr-atmega256rfr2.a(packetbuf.o)
                0x0000a1a4                packetbuf_dataptr
 .text.packetbuf_hdrptr
                0x0000a1b2        0xc contiki-avr-atmega256rfr2.a(packetbuf.o)
                0x0000a1b2                packetbuf_hdrptr
 .text.packetbuf_is_reference
                0x0000a1be       0x18 contiki-avr-atmega256rfr2.a(packetbuf.o)
                0x0000a1be                packetbuf_is_reference
 .text.packetbuf_compact
                0x0000a1d6       0x5e contiki-avr-atmega256rfr2.a(packetbuf.o)
                0x0000a1d6                packetbuf_compact
 .text.packetbuf_reference_ptr
                0x0000a234        0xa contiki-avr-atmega256rfr2.a(packetbuf.o)
                0x0000a234                packetbuf_reference_ptr
 .text.packetbuf_datalen
                0x0000a23e        0xa contiki-avr-atmega256rfr2.a(packetbuf.o)
                0x0000a23e                packetbuf_datalen
 .text.packetbuf_hdrlen
                0x0000a248       0x10 contiki-avr-atmega256rfr2.a(packetbuf.o)
                0x0000a248                packetbuf_hdrlen
 .text.packetbuf_totlen
                0x0000a258       0x16 contiki-avr-atmega256rfr2.a(packetbuf.o)
                0x0000a258                packetbuf_totlen
 .text.packetbuf_hdralloc
                0x0000a26e       0x3c contiki-avr-atmega256rfr2.a(packetbuf.o)
                0x0000a26e                packetbuf_hdralloc
 .text.packetbuf_attr_clear
                0x0000a2aa       0x32 contiki-avr-atmega256rfr2.a(packetbuf.o)
                0x0000a2aa                packetbuf_attr_clear
 .text.packetbuf_clear
                0x0000a2dc       0x26 contiki-avr-atmega256rfr2.a(packetbuf.o)
                0x0000a2dc                packetbuf_clear
 .text.packetbuf_copyfrom
                0x0000a302       0x60 contiki-avr-atmega256rfr2.a(packetbuf.o)
                0x0000a302                packetbuf_copyfrom
 .text.packetbuf_attr_copyto
                0x0000a362       0x22 contiki-avr-atmega256rfr2.a(packetbuf.o)
                0x0000a362                packetbuf_attr_copyto
 .text.packetbuf_attr_copyfrom
                0x0000a384       0x22 contiki-avr-atmega256rfr2.a(packetbuf.o)
                0x0000a384                packetbuf_attr_copyfrom
 .text.packetbuf_set_attr
                0x0000a3a6       0x16 contiki-avr-atmega256rfr2.a(packetbuf.o)
                0x0000a3a6                packetbuf_set_attr
 .text.packetbuf_attr
                0x0000a3bc       0x12 contiki-avr-atmega256rfr2.a(packetbuf.o)
                0x0000a3bc                packetbuf_attr
 .text.packetbuf_set_addr
                0x0000a3ce       0x16 contiki-avr-atmega256rfr2.a(packetbuf.o)
                0x0000a3ce                packetbuf_set_addr
 .text.packetbuf_addr
                0x0000a3e4        0xe contiki-avr-atmega256rfr2.a(packetbuf.o)
                0x0000a3e4                packetbuf_addr
 .text.packetbuf_holds_broadcast
                0x0000a3f2        0xc contiki-avr-atmega256rfr2.a(packetbuf.o)
                0x0000a3f2                packetbuf_holds_broadcast
 .text.queuebuf_init
                0x0000a3fe       0x18 contiki-avr-atmega256rfr2.a(queuebuf.o)
                0x0000a3fe                queuebuf_init
 .text.queuebuf_numfree
                0x0000a416       0x16 contiki-avr-atmega256rfr2.a(queuebuf.o)
                0x0000a416                queuebuf_numfree
 .text.queuebuf_new_from_packetbuf
                0x0000a42c       0x9a contiki-avr-atmega256rfr2.a(queuebuf.o)
                0x0000a42c                queuebuf_new_from_packetbuf
 .text.queuebuf_free
                0x0000a4c6       0x4a contiki-avr-atmega256rfr2.a(queuebuf.o)
                0x0000a4c6                queuebuf_free
 .text.queuebuf_to_packetbuf
                0x0000a510       0x92 contiki-avr-atmega256rfr2.a(queuebuf.o)
                0x0000a510                queuebuf_to_packetbuf
 .text.bootstrap
                0x0000a5a2        0x4 contiki-avr-atmega256rfr2.a(nullsec.o)
 .text.on_frame_created
                0x0000a5a6        0x6 contiki-avr-atmega256rfr2.a(nullsec.o)
 .text.input    0x0000a5ac        0xa contiki-avr-atmega256rfr2.a(nullsec.o)
 .text.get_overhead
                0x0000a5b6        0x4 contiki-avr-atmega256rfr2.a(nullsec.o)
 .text.send     0x0000a5ba       0x2c contiki-avr-atmega256rfr2.a(nullsec.o)
 .text.__vector_32
                0x0000a5e6       0xee contiki-avr-atmega256rfr2.a(rtimer-arch.o)
                0x0000a5e6                __vector_32
 .text.rtimer_arch_init
                0x0000a6d4       0x34 contiki-avr-atmega256rfr2.a(rtimer-arch.o)
                0x0000a6d4                rtimer_arch_init
 .text.rtimer_arch_schedule
                0x0000a708       0x20 contiki-avr-atmega256rfr2.a(rtimer-arch.o)
                0x0000a708                rtimer_arch_schedule
 .text.stimer_set
                0x0000a728       0x20 contiki-avr-atmega256rfr2.a(stimer.o)
                0x0000a728                stimer_set
 .text.stimer_expired
                0x0000a748       0x5c contiki-avr-atmega256rfr2.a(stimer.o)
                0x0000a748                stimer_expired
 .text.sicslowpan_init
                0x0000a7a4       0x1e contiki-avr-atmega256rfr2.a(sicslowpan.o)
                0x0000a7a4                sicslowpan_init
 .text.set_packet_attrs
                0x0000a7c2       0x52 contiki-avr-atmega256rfr2.a(sicslowpan.o)
 .text.compress_addr_64
                0x0000a814       0xcc contiki-avr-atmega256rfr2.a(sicslowpan.o)
 .text.addr_context_lookup_by_prefix
                0x0000a8e0       0x26 contiki-avr-atmega256rfr2.a(sicslowpan.o)
 .text.send_packet
                0x0000a906       0x1e contiki-avr-atmega256rfr2.a(sicslowpan.o)
 .text.output   0x0000a924      0x87c contiki-avr-atmega256rfr2.a(sicslowpan.o)
 .text.packet_sent
                0x0000b1a0       0x32 contiki-avr-atmega256rfr2.a(sicslowpan.o)
 .text.uncompress_addr
                0x0000b1d2       0xe2 contiki-avr-atmega256rfr2.a(sicslowpan.o)
 .text.input    0x0000b2b4      0x78e contiki-avr-atmega256rfr2.a(sicslowpan.o)
 .text.parse    0x0000ba42       0xd4 contiki-avr-atmega256rfr2.a(framer-802154.o)
 .text.create_frame.isra.0
                0x0000bb16      0x14c contiki-avr-atmega256rfr2.a(framer-802154.o)
 .text.create   0x0000bc62        0x8 contiki-avr-atmega256rfr2.a(framer-802154.o)
 .text.hdr_length
                0x0000bc6a        0x8 contiki-avr-atmega256rfr2.a(framer-802154.o)
 .text.framer_canonical_create_and_secure
                0x0000bc72       0x34 contiki-avr-atmega256rfr2.a(framer.o)
                0x0000bc72                framer_canonical_create_and_secure
 .text.mac_call_sent_callback
                0x0000bca6       0x10 contiki-avr-atmega256rfr2.a(mac.o)
                0x0000bca6                mac_call_sent_callback
 .text.field_len
                0x0000bcb6       0x8e contiki-avr-atmega256rfr2.a(frame802154.o)
 .text.frame802154_hdrlen
                0x0000bd44       0x46 contiki-avr-atmega256rfr2.a(frame802154.o)
                0x0000bd44                frame802154_hdrlen
 .text.frame802154_create
                0x0000bd8a      0x1ac contiki-avr-atmega256rfr2.a(frame802154.o)
                0x0000bd8a                frame802154_create
 .text.frame802154_parse
                0x0000bf36      0x19c contiki-avr-atmega256rfr2.a(frame802154.o)
                0x0000bf36                frame802154_parse
 .text.libgcc.div
                0x0000c0d2       0x28 /usr/local/bin/../lib/gcc/avr/4.8.1/avr6/libgcc.a(_udivmodhi4.o)
                0x0000c0d2                __udivmodhi4
 .text.libgcc.div
                0x0000c0fa       0x28 /usr/local/bin/../lib/gcc/avr/4.8.1/avr6/libgcc.a(_divmodhi4.o)
                0x0000c0fa                __divmodhi4
                0x0000c0fa                _div
 .text.libgcc.div
                0x0000c122       0x44 /usr/local/bin/../lib/gcc/avr/4.8.1/avr6/libgcc.a(_udivmodsi4.o)
                0x0000c122                __udivmodsi4
 .text.libgcc   0x0000c166        0xc /usr/local/bin/../lib/gcc/avr/4.8.1/avr6/libgcc.a(_tablejump.o)
                0x0000c166                __tablejump2__
                0x0000c16a                __tablejump__
 .text.libgcc.builtins
                0x0000c172        0xe /usr/local/bin/../lib/gcc/avr/4.8.1/avr6/libgcc.a(_bswapsi2.o)
                0x0000c172                __bswapsi2
 .text.libgcc.mul
                0x0000c180       0x1e /usr/local/bin/../lib/gcc/avr/4.8.1/avr6/libgcc.a(_umulhisi3.o)
                0x0000c180                __umulhisi3
 .text.avr-libc
                0x0000c19e       0xb8 /usr/local/bin/../lib/gcc/avr/4.8.1/../../../../avr/lib/avr6/libc.a(rand.o)
                0x0000c234                rand_r
                0x0000c238                rand
                0x0000c240                srand
 .text.avr-libc
                0x0000c256       0x1a /usr/local/bin/../lib/gcc/avr/4.8.1/../../../../avr/lib/avr6/libc.a(memcmp.o)
                0x0000c256                memcmp
 .text.avr-libc
                0x0000c270       0x12 /usr/local/bin/../lib/gcc/avr/4.8.1/../../../../avr/lib/avr6/libc.a(memcpy.o)
                0x0000c270                memcpy
 .text.avr-libc
                0x0000c282       0x24 /usr/local/bin/../lib/gcc/avr/4.8.1/../../../../avr/lib/avr6/libc.a(memmove.o)
                0x0000c282                memmove
 .text.avr-libc
                0x0000c2a6        0xe /usr/local/bin/../lib/gcc/avr/4.8.1/../../../../avr/lib/avr6/libc.a(memset.o)
                0x0000c2a6                memset
 .text.avr-libc
                0x0000c2b4       0x24 /usr/local/bin/../lib/gcc/avr/4.8.1/../../../../avr/lib/avr6/libc.a(printf.o)
                0x0000c2b4                printf
 .text.avr-libc
                0x0000c2d8       0x48 /usr/local/bin/../lib/gcc/avr/4.8.1/../../../../avr/lib/avr6/libc.a(printf_p.o)
                0x0000c2d8                printf_P
 .text.avr-libc
                0x0000c320        0xc /usr/local/bin/../lib/gcc/avr/4.8.1/../../../../avr/lib/avr6/libc.a(putchar.o)
                0x0000c320                putchar
 .text.avr-libc
                0x0000c32c       0x5a /usr/local/bin/../lib/gcc/avr/4.8.1/../../../../avr/lib/avr6/libc.a(puts.o)
                0x0000c32c                puts
 .text.avr-libc
                0x0000c386      0x3f6 /usr/local/bin/../lib/gcc/avr/4.8.1/../../../../avr/lib/avr6/libc.a(vfprintf_std.o)
                0x0000c386                vfprintf
 .text.avr-libc
                0x0000c77c       0x20 /usr/local/bin/../lib/gcc/avr/4.8.1/../../../../avr/lib/avr6/libc.a(eerd_block_atmega256rfr2.o)
                0x0000c77c                __eerd_block_EEPROM_SUFFIX
                0x0000c780                __eerd_blraw_EEPROM_SUFFIX
 .text.avr-libc
                0x0000c79c       0x10 /usr/local/bin/../lib/gcc/avr/4.8.1/../../../../avr/lib/avr6/libc.a(eerd_byte_atmega256rfr2.o)
                0x0000c79c                __eerd_byte_EEPROM_SUFFIX
 .text.avr-libc
                0x0000c7ac        0xc /usr/local/bin/../lib/gcc/avr/4.8.1/../../../../avr/lib/avr6/libc.a(eerd_word_atmega256rfr2.o)
                0x0000c7ac                __eerd_word_EEPROM_SUFFIX
 .text.avr-libc
                0x0000c7b8       0x14 /usr/local/bin/../lib/gcc/avr/4.8.1/../../../../avr/lib/avr6/libc.a(eewr_block_atmega256rfr2.o)
                0x0000c7b8                __eewr_block_EEPROM_SUFFIX
 .text.avr-libc
                0x0000c7cc       0x1c /usr/local/bin/../lib/gcc/avr/4.8.1/../../../../avr/lib/avr6/libc.a(eewr_byte_atmega256rfr2.o)
                0x0000c7cc                __eewr_byte_EEPROM_SUFFIX
                0x0000c7ce                __eewr_r18_EEPROM_SUFFIX
 .text.avr-libc
                0x0000c7e8        0xa /usr/local/bin/../lib/gcc/avr/4.8.1/../../../../avr/lib/avr6/libc.a(eewr_word_atmega256rfr2.o)
                0x0000c7e8                __eewr_word_EEPROM_SUFFIX
 .text.avr-libc
                0x0000c7f2       0x16 /usr/local/bin/../lib/gcc/avr/4.8.1/../../../../avr/lib/avr6/libc.a(strnlen_P.o)
                0x0000c7f2                strnlen_P
 .text.avr-libc
                0x0000c808       0x16 /usr/local/bin/../lib/gcc/avr/4.8.1/../../../../avr/lib/avr6/libc.a(strnlen.o)
                0x0000c808                strnlen
 .text.avr-libc
                0x0000c81e       0x64 /usr/local/bin/../lib/gcc/avr/4.8.1/../../../../avr/lib/avr6/libc.a(fputc.o)
                0x0000c81e                fputc
 .text.avr-libc
                0x0000c882       0xbc /usr/local/bin/../lib/gcc/avr/4.8.1/../../../../avr/lib/avr6/libc.a(ultoa_invert.o)
                0x0000c882                __ultoa_invert
 .text.libgcc.div
                0x0000c93e       0x2e /usr/local/bin/../lib/gcc/avr/4.8.1/avr6/libgcc.a(_divmodsi4.o)
                0x0000c93e                __divmodsi4
 .text.libgcc.div
                0x0000c96c       0x10 /usr/local/bin/../lib/gcc/avr/4.8.1/avr6/libgcc.a(_negsi2.o)
                0x0000c96c                __negsi2
 .text.libgcc.mul
                0x0000c97c       0x16 /usr/local/bin/../lib/gcc/avr/4.8.1/avr6/libgcc.a(_muluhisi3.o)
                0x0000c97c                __muluhisi3
 .text.libgcc.mul
                0x0000c992       0x10 /usr/local/bin/../lib/gcc/avr/4.8.1/avr6/libgcc.a(_mulshisi3.o)
                0x0000c992                __mulshisi3
                0x0000c998                __mulohisi3
                0x0000c9a2                . = ALIGN (0x2)
 *(.fini9)
 .fini9         0x0000c9a2        0x0 /usr/local/bin/../lib/gcc/avr/4.8.1/avr6/libgcc.a(_exit.o)
                0x0000c9a2                exit
                0x0000c9a2                _exit
 *(.fini9)
 *(.fini8)
 *(.fini8)
 *(.fini7)
 *(.fini7)
 *(.fini6)
 *(.fini6)
 *(.fini5)
 *(.fini5)
 *(.fini4)
 *(.fini4)
 *(.fini3)
 *(.fini3)
 *(.fini2)
 *(.fini2)
 *(.fini1)
 *(.fini1)
 *(.fini0)
 .fini0         0x0000c9a2        0x4 /usr/local/bin/../lib/gcc/avr/4.8.1/avr6/libgcc.a(_exit.o)
 *(.fini0)
                0x0000c9a6                _etext = .

.data           0x00800200      0x344 load address 0x0000c9a6
                0x00800200                PROVIDE (__data_start, .)
 *(.data)
 .data          0x00800200        0x4 /usr/local/bin/../lib/gcc/avr/4.8.1/../../../../avr/lib/avr6/libc.a(rand.o)
 *(.data*)
 .data.unicast_receiver_process
                0x00800204        0xa unicast-receiver.co
                0x00800204                unicast_receiver_process
 .data.servreg_hack_process
                0x0080020e        0xa contiki-avr-atmega256rfr2.a(servreg-hack.o)
                0x0080020e                servreg_hack_process
 .data.registrations
                0x00800218        0x8 contiki-avr-atmega256rfr2.a(servreg-hack.o)
 .data.rs232_stdout
                0x00800220        0xe contiki-avr-atmega256rfr2.a(rs232.o)
 .data.rf230_process
                0x0080022e        0xa contiki-avr-atmega256rfr2.a(rf230bb.o)
                0x0080022e                rf230_process
 .data.ctimer_process
                0x00800238        0xa contiki-avr-atmega256rfr2.a(ctimer.o)
                0x00800238                ctimer_process
 .data.etimer_process
                0x00800242        0xa contiki-avr-atmega256rfr2.a(etimer.o)
                0x00800242                etimer_process
 .data.ds6_neighbors
                0x0080024c        0x2 contiki-avr-atmega256rfr2.a(uip-ds6-nbr.o)
                0x0080024c                ds6_neighbors
 .data.ds6_neighbors_struct
                0x0080024e        0x8 contiki-avr-atmega256rfr2.a(uip-ds6-nbr.o)
 .data.defaultroutermemb
                0x00800256        0x8 contiki-avr-atmega256rfr2.a(uip-ds6-route.o)
 .data.routememb
                0x0080025e        0x8 contiki-avr-atmega256rfr2.a(uip-ds6-route.o)
 .data.neighborroutememb
                0x00800266        0x8 contiki-avr-atmega256rfr2.a(uip-ds6-route.o)
 .data.nbr_routes_struct
                0x0080026e        0x8 contiki-avr-atmega256rfr2.a(uip-ds6-route.o)
 .data.echo_reply_handler
                0x00800276        0x6 contiki-avr-atmega256rfr2.a(uip-icmp6.o)
 .data.echo_request_handler
                0x0080027c        0x6 contiki-avr-atmega256rfr2.a(uip-icmp6.o)
 .data.na_input_handler
                0x00800282        0x6 contiki-avr-atmega256rfr2.a(uip-nd6.o)
 .data.ns_input_handler
                0x00800288        0x6 contiki-avr-atmega256rfr2.a(uip-nd6.o)
 .data.simple_udp_process
                0x0080028e        0xa contiki-avr-atmega256rfr2.a(simple-udp.o)
                0x0080028e                simple_udp_process
 .data.tcpip_process
                0x00800298        0xa contiki-avr-atmega256rfr2.a(tcpip.o)
                0x00800298                tcpip_process
 .data.packets_memb
                0x008002a2        0x8 contiki-avr-atmega256rfr2.a(uip-packetqueue)
 .data.rpl_parents_struct
                0x008002aa        0x8 contiki-avr-atmega256rfr2.a(rpl-dag.o)
 .data.dao_ack_handler
                0x008002b2        0x6 contiki-avr-atmega256rfr2.a(rpl-icmp6.o)
 .data.dao_handler
                0x008002b8        0x6 contiki-avr-atmega256rfr2.a(rpl-icmp6.o)
 .data.dio_handler
                0x008002be        0x6 contiki-avr-atmega256rfr2.a(rpl-icmp6.o)
 .data.dis_handler
                0x008002c4        0x6 contiki-avr-atmega256rfr2.a(rpl-icmp6.o)
 .data.dao_sequence
                0x008002ca        0x1 contiki-avr-atmega256rfr2.a(rpl-icmp6.o)
 .data.rpl_mrhof
                0x008002cb        0xe contiki-avr-atmega256rfr2.a(rpl-mrhof.o)
                0x008002cb                rpl_mrhof
 .data.neighbor_addr_mem
                0x008002d9        0x8 contiki-avr-atmega256rfr2.a(nbr-table.o)
 .data.buframmem
                0x008002e1        0x8 contiki-avr-atmega256rfr2.a(queuebuf.o)
 .data.refbufmem
                0x008002e9        0x8 contiki-avr-atmega256rfr2.a(queuebuf.o)
 .data.bufmem   0x008002f1        0x8 contiki-avr-atmega256rfr2.a(queuebuf.o)
 *(.rodata)
 *(.rodata*)
 .rodata.str1.1
                0x008002f9       0x75 unicast-receiver.co
 .rodata.autostart_processes
                0x0080036e        0x4 unicast-receiver.co
                0x0080036e                autostart_processes
 .rodata.str1.1
                0x00800372       0x99 contiki-avr-atmega256rfr2.a(servreg-hack.o)
 .rodata.str1.1
                0x0080040b       0x4f contiki-avr-atmega256rfr2.a(contiki-main.o)
 .rodata.str1.1
                0x0080045a        0xd contiki-avr-atmega256rfr2.a(rf230bb.o)
 .rodata.rf230_driver
                0x00800467       0x1c contiki-avr-atmega256rfr2.a(rf230bb.o)
                0x00800467                rf230_driver
 .rodata.str1.1
                0x00800483        0xf contiki-avr-atmega256rfr2.a(ctimer.o)
 .rodata.str1.1
                0x00800492        0xc contiki-avr-atmega256rfr2.a(etimer.o)
 .rodata.str1.1
                0x0080049e       0x13 contiki-avr-atmega256rfr2.a(simple-udp.o)
 .rodata.str1.1
                0x008004b1        0xd contiki-avr-atmega256rfr2.a(tcpip.o)
 .rodata.str1.1
                0x008004be        0xf contiki-avr-atmega256rfr2.a(uip-debug.o)
 .rodata.str1.1
                0x008004cd        0x8 contiki-avr-atmega256rfr2.a(nullmac.o)
 .rodata.nullmac_driver
                0x008004d5        0xe contiki-avr-atmega256rfr2.a(nullmac.o)
                0x008004d5                nullmac_driver
 .rodata.str1.1
                0x008004e3        0x8 contiki-avr-atmega256rfr2.a(nullrdc.o)
 .rodata.nullrdc_driver
                0x008004eb       0x12 contiki-avr-atmega256rfr2.a(nullrdc.o)
                0x008004eb                nullrdc_driver
 .rodata.linkaddr_null
                0x008004fd        0x8 contiki-avr-atmega256rfr2.a(linkaddr.o)
                0x008004fd                linkaddr_null
 .rodata.str1.1
                0x00800505        0x8 contiki-avr-atmega256rfr2.a(nullsec.o)
 .rodata.nullsec_driver
                0x0080050d        0xc contiki-avr-atmega256rfr2.a(nullsec.o)
                0x0080050d                nullsec_driver
 .rodata.str1.1
                0x00800519        0xb contiki-avr-atmega256rfr2.a(sicslowpan.o)
 .rodata.sicslowpan_driver
                0x00800524        0x6 contiki-avr-atmega256rfr2.a(sicslowpan.o)
                0x00800524                sicslowpan_driver
 .rodata.ttl_values
                0x0080052a        0x4 contiki-avr-atmega256rfr2.a(sicslowpan.o)
 .rodata.llprefix
                0x0080052e        0x2 contiki-avr-atmega256rfr2.a(sicslowpan.o)
                0x0080052e                llprefix
 .rodata.unc_mxconf
                0x00800530        0x4 contiki-avr-atmega256rfr2.a(sicslowpan.o)
                0x00800530                unc_mxconf
 .rodata.unc_ctxconf
                0x00800534        0x4 contiki-avr-atmega256rfr2.a(sicslowpan.o)
                0x00800534                unc_ctxconf
 .rodata.unc_llconf
                0x00800538        0x4 contiki-avr-atmega256rfr2.a(sicslowpan.o)
                0x00800538                unc_llconf
 .rodata.framer_802154
                0x0080053c        0x8 contiki-avr-atmega256rfr2.a(framer-802154.o)
                0x0080053c                framer_802154
 *(.gnu.linkonce.d*)
                0x00800544                . = ALIGN (0x2)
                0x00800544                _edata = .
                0x00800544                PROVIDE (__data_end, .)

.bss            0x00800544     0x1f28
                0x00800544                PROVIDE (__bss_start, .)
 *(.bss)
 *(.bss*)
 .bss.ipaddr.3206
                0x00800544       0x10 unicast-receiver.co
 .bss.unicast_connection
                0x00800554       0x1c unicast-receiver.co
 .bss.periodic.4171
                0x00800570        0x8 contiki-avr-atmega256rfr2.a(servreg-hack.o)
 .bss.inconn.4173
                0x00800578        0x2 contiki-avr-atmega256rfr2.a(servreg-hack.o)
 .bss.outconn.4172
                0x0080057a        0x2 contiki-avr-atmega256rfr2.a(servreg-hack.o)
 .bss.started   0x0080057c        0x1 contiki-avr-atmega256rfr2.a(servreg-hack.o)
 .bss.sendtimer
                0x0080057d        0x8 contiki-avr-atmega256rfr2.a(servreg-hack.o)
 .bss.registrations_memb_mem
                0x00800585      0x180 contiki-avr-atmega256rfr2.a(servreg-hack.o)
 .bss.registrations_memb_count
                0x00800705       0x10 contiki-avr-atmega256rfr2.a(servreg-hack.o)
 .bss.own_services_list
                0x00800715        0x2 contiki-avr-atmega256rfr2.a(servreg-hack.o)
 .bss.others_services_list
                0x00800717        0x2 contiki-avr-atmega256rfr2.a(servreg-hack.o)
 .bss.rcount    0x00800719        0x1 contiki-avr-atmega256rfr2.a(clock.o)
 .bss.count     0x0080071a        0x2 contiki-avr-atmega256rfr2.a(clock.o)
 .bss.stdout_rs232_port
                0x0080071c        0x1 contiki-avr-atmega256rfr2.a(rs232.o)
 .bss.buffer    0x0080071d       0x81 contiki-avr-atmega256rfr2.a(rf230bb.o)
 .bss.channel   0x0080079e        0x1 contiki-avr-atmega256rfr2.a(rf230bb.o)
 .bss.initialized
                0x0080079f        0x1 contiki-avr-atmega256rfr2.a(ctimer.o)
 .bss.ctimer_list_list
                0x008007a0        0x2 contiki-avr-atmega256rfr2.a(ctimer.o)
 .bss.next_expiration
                0x008007a2        0x2 contiki-avr-atmega256rfr2.a(etimer.o)
 .bss.timerlist
                0x008007a4        0x2 contiki-avr-atmega256rfr2.a(etimer.o)
 .bss.snum.1757
                0x008007a6        0x1 contiki-avr-atmega256rfr2.a(process.o)
 .bss.p.1742    0x008007a7        0x2 contiki-avr-atmega256rfr2.a(process.o)
 .bss.receiver.1741
                0x008007a9        0x2 contiki-avr-atmega256rfr2.a(process.o)
 .bss.data.1740
                0x008007ab        0x2 contiki-avr-atmega256rfr2.a(process.o)
 .bss.ev.1739   0x008007ad        0x1 contiki-avr-atmega256rfr2.a(process.o)
 .bss.poll_requested
                0x008007ae        0x1 contiki-avr-atmega256rfr2.a(process.o)
 .bss.events    0x008007af       0xa0 contiki-avr-atmega256rfr2.a(process.o)
 .bss.fevent    0x0080084f        0x1 contiki-avr-atmega256rfr2.a(process.o)
 .bss.nevents   0x00800850        0x1 contiki-avr-atmega256rfr2.a(process.o)
 .bss.lastevent
                0x00800851        0x1 contiki-avr-atmega256rfr2.a(process.o)
 .bss.process_current
                0x00800852        0x2 contiki-avr-atmega256rfr2.a(process.o)
                0x00800852                process_current
 .bss.process_list
                0x00800854        0x2 contiki-avr-atmega256rfr2.a(process.o)
                0x00800854                process_list
 .bss.next_rtimer
                0x00800856        0x2 contiki-avr-atmega256rfr2.a(rtimer.o)
 .bss.tmp16     0x00800858        0x2 contiki-avr-atmega256rfr2.a(uip6.o)
 .bss.opt       0x0080085a        0x1 contiki-avr-atmega256rfr2.a(uip6.o)
 .bss.iss       0x0080085b        0x4 contiki-avr-atmega256rfr2.a(uip6.o)
 .bss.lastport  0x0080085f        0x2 contiki-avr-atmega256rfr2.a(uip6.o)
 .bss.c         0x00800861        0x1 contiki-avr-atmega256rfr2.a(uip6.o)
 .bss.uip_ext_opt_offset
                0x00800862        0x1 contiki-avr-atmega256rfr2.a(uip6.o)
                0x00800862                uip_ext_opt_offset
 .bss.uip_ext_len
                0x00800863        0x1 contiki-avr-atmega256rfr2.a(uip6.o)
                0x00800863                uip_ext_len
 .bss.uip_ext_bitmap
                0x00800864        0x1 contiki-avr-atmega256rfr2.a(uip6.o)
                0x00800864                uip_ext_bitmap
 .bss.locprefix
                0x00800865        0x2 contiki-avr-atmega256rfr2.a(uip-ds6.o)
 .bss.locmaddr  0x00800867        0x2 contiki-avr-atmega256rfr2.a(uip-ds6.o)
 .bss.locaddr   0x00800869        0x2 contiki-avr-atmega256rfr2.a(uip-ds6.o)
 .bss.loc_fipaddr
                0x0080086b       0x10 contiki-avr-atmega256rfr2.a(uip-ds6.o)
 .bss._ds6_neighbors_mem
                0x0080087b      0x30c contiki-avr-atmega256rfr2.a(uip-ds6-nbr.o)
 .bss.num_routes
                0x00800b87        0x2 contiki-avr-atmega256rfr2.a(uip-ds6-route.o)
 .bss.notificationlist_list
                0x00800b89        0x2 contiki-avr-atmega256rfr2.a(uip-ds6-route.o)
 .bss.defaultroutermemb_memb_mem
                0x00800b8b       0x36 contiki-avr-atmega256rfr2.a(uip-ds6-route.o)
 .bss.defaultroutermemb_memb_count
                0x00800bc1        0x2 contiki-avr-atmega256rfr2.a(uip-ds6-route.o)
 .bss.defaultrouterlist_list
                0x00800bc3        0x2 contiki-avr-atmega256rfr2.a(uip-ds6-route.o)
 .bss.routememb_memb_mem
                0x00800bc5      0x244 contiki-avr-atmega256rfr2.a(uip-ds6-route.o)
 .bss.routememb_memb_count
                0x00800e09       0x14 contiki-avr-atmega256rfr2.a(uip-ds6-route.o)
 .bss.routelist_list
                0x00800e1d        0x2 contiki-avr-atmega256rfr2.a(uip-ds6-route.o)
 .bss.neighborroutememb_memb_mem
                0x00800e1f       0x50 contiki-avr-atmega256rfr2.a(uip-ds6-route.o)
 .bss.neighborroutememb_memb_count
                0x00800e6f       0x14 contiki-avr-atmega256rfr2.a(uip-ds6-route.o)
 .bss._nbr_routes_mem
                0x00800e83       0x50 contiki-avr-atmega256rfr2.a(uip-ds6-route.o)
 .bss.input_handler_list_list
                0x00800ed3        0x2 contiki-avr-atmega256rfr2.a(uip-icmp6.o)
 .bss.echo_reply_callback_list_list
                0x00800ed5        0x2 contiki-avr-atmega256rfr2.a(uip-icmp6.o)
 .bss.tmp_ipaddr
                0x00800ed7       0x10 contiki-avr-atmega256rfr2.a(uip-icmp6.o)
 .bss.addr      0x00800ee7        0x2 contiki-avr-atmega256rfr2.a(uip-nd6.o)
 .bss.defrt     0x00800ee9        0x2 contiki-avr-atmega256rfr2.a(uip-nd6.o)
 .bss.nbr       0x00800eeb        0x2 contiki-avr-atmega256rfr2.a(uip-nd6.o)
 .bss.nd6_opt_llao
                0x00800eed        0x2 contiki-avr-atmega256rfr2.a(uip-nd6.o)
 .bss.nd6_opt_offset
                0x00800eef        0x1 contiki-avr-atmega256rfr2.a(uip-nd6.o)
 .bss.databuffer
                0x00800ef0       0xf0 contiki-avr-atmega256rfr2.a(simple-udp.o)
 .bss.started   0x00800fe0        0x1 contiki-avr-atmega256rfr2.a(simple-udp.o)
 .bss.i.4499    0x00800fe1        0x1 contiki-avr-atmega256rfr2.a(tcpip.o)
 .bss.i.4455    0x00800fe2        0x1 contiki-avr-atmega256rfr2.a(tcpip.o)
 .bss.i.4511    0x00800fe3        0x1 contiki-avr-atmega256rfr2.a(tcpip.o)
 .bss.outputfunc
                0x00800fe4        0x2 contiki-avr-atmega256rfr2.a(tcpip.o)
 .bss.s         0x00800fe6       0x12 contiki-avr-atmega256rfr2.a(tcpip.o)
 .bss.periodic  0x00800ff8        0x8 contiki-avr-atmega256rfr2.a(tcpip.o)
 .bss.packets_memb_memb_mem
                0x00801000      0x20c contiki-avr-atmega256rfr2.a(uip-packetqueue)
 .bss.packets_memb_memb_count
                0x0080120c        0x2 contiki-avr-atmega256rfr2.a(uip-packetqueue)
 .bss.mode      0x0080120e        0x2 contiki-avr-atmega256rfr2.a(rpl.o)
 .bss._rpl_parents_mem
                0x00801210       0xa0 contiki-avr-atmega256rfr2.a(rpl-dag.o)
 .bss.dio_send_ok
                0x008012b0        0x1 contiki-avr-atmega256rfr2.a(rpl-timers.o)
 .bss.next_dis  0x008012b1        0x2 contiki-avr-atmega256rfr2.a(rpl-timers.o)
 .bss.periodic_timer
                0x008012b3       0x10 contiki-avr-atmega256rfr2.a(rpl-timers.o)
 .bss.nbr_table_keys_list
                0x008012c3        0x2 contiki-avr-atmega256rfr2.a(nbr-table.o)
 .bss.neighbor_addr_mem_memb_mem
                0x008012c5       0xc8 contiki-avr-atmega256rfr2.a(nbr-table.o)
 .bss.neighbor_addr_mem_memb_count
                0x0080138d       0x14 contiki-avr-atmega256rfr2.a(nbr-table.o)
 .bss.num_tables
                0x008013a1        0x2 contiki-avr-atmega256rfr2.a(nbr-table.o)
 .bss.all_tables
                0x008013a3       0x10 contiki-avr-atmega256rfr2.a(nbr-table.o)
 .bss.locked_map
                0x008013b3       0x14 contiki-avr-atmega256rfr2.a(nbr-table.o)
 .bss.used_map  0x008013c7       0x14 contiki-avr-atmega256rfr2.a(nbr-table.o)
 .bss.packetbufptr
                0x008013db        0x2 contiki-avr-atmega256rfr2.a(packetbuf.o)
 .bss.packetbuf_aligned
                0x008013dd       0xb0 contiki-avr-atmega256rfr2.a(packetbuf.o)
 .bss.hdrptr    0x0080148d        0x1 contiki-avr-atmega256rfr2.a(packetbuf.o)
 .bss.bufptr    0x0080148e        0x2 contiki-avr-atmega256rfr2.a(packetbuf.o)
 .bss.buflen    0x00801490        0x2 contiki-avr-atmega256rfr2.a(packetbuf.o)
 .bss.buframmem_memb_mem
                0x00801492      0x6b0 contiki-avr-atmega256rfr2.a(queuebuf.o)
 .bss.buframmem_memb_count
                0x00801b42        0x8 contiki-avr-atmega256rfr2.a(queuebuf.o)
 .bss.refbufmem_memb_mem
                0x00801b4a       0x6a contiki-avr-atmega256rfr2.a(queuebuf.o)
 .bss.refbufmem_memb_count
                0x00801bb4        0x2 contiki-avr-atmega256rfr2.a(queuebuf.o)
 .bss.bufmem_memb_mem
                0x00801bb6       0x10 contiki-avr-atmega256rfr2.a(queuebuf.o)
 .bss.bufmem_memb_count
                0x00801bc6        0x8 contiki-avr-atmega256rfr2.a(queuebuf.o)
 .bss.hc06_ptr  0x00801bce        0x2 contiki-avr-atmega256rfr2.a(sicslowpan.o)
 .bss.context   0x00801bd0        0x2 contiki-avr-atmega256rfr2.a(sicslowpan.o)
 .bss.addr_contexts
                0x00801bd2        0xa contiki-avr-atmega256rfr2.a(sicslowpan.o)
 .bss.callback  0x00801bdc        0x2 contiki-avr-atmega256rfr2.a(sicslowpan.o)
 .bss.last_rssi
                0x00801bde        0x2 contiki-avr-atmega256rfr2.a(sicslowpan.o)
 .bss.reass_timer
                0x00801be0        0x4 contiki-avr-atmega256rfr2.a(sicslowpan.o)
 .bss.reass_tag
                0x00801be4        0x2 contiki-avr-atmega256rfr2.a(sicslowpan.o)
 .bss.my_tag    0x00801be6        0x2 contiki-avr-atmega256rfr2.a(sicslowpan.o)
 .bss.processed_ip_in_len
                0x00801be8        0x2 contiki-avr-atmega256rfr2.a(sicslowpan.o)
 .bss.sicslowpan_aligned_buf
                0x00801bea       0xf0 contiki-avr-atmega256rfr2.a(sicslowpan.o)
 .bss.sicslowpan_len
                0x00801cda        0x2 contiki-avr-atmega256rfr2.a(sicslowpan.o)
 .bss.last_tx_status
                0x00801cdc        0x2 contiki-avr-atmega256rfr2.a(sicslowpan.o)
 .bss.uncomp_hdr_len
                0x00801cde        0x1 contiki-avr-atmega256rfr2.a(sicslowpan.o)
 .bss.packetbuf_payload_len
                0x00801cdf        0x2 contiki-avr-atmega256rfr2.a(sicslowpan.o)
 .bss.packetbuf_hdr_len
                0x00801ce1        0x1 contiki-avr-atmega256rfr2.a(sicslowpan.o)
 .bss.packetbuf_ptr
                0x00801ce2        0x2 contiki-avr-atmega256rfr2.a(sicslowpan.o)
 .bss.initialized
                0x00801ce4        0x1 contiki-avr-atmega256rfr2.a(framer-802154.o)
 .bss.mac_dsn   0x00801ce5        0x1 contiki-avr-atmega256rfr2.a(framer-802154.o)
 *(COMMON)
 COMMON         0x00801ce6        0x6 contiki-avr-atmega256rfr2.a(contiki-main.o)
                0x00801ce6                ledtimer
                0x00801ce8                clocktime
 COMMON         0x00801cec        0xc contiki-avr-atmega256rfr2.a(clock.o)
                0x00801cec                radioontime
                0x00801cf0                sleepseconds
                0x00801cf4                seconds
 COMMON         0x00801cf8        0x4 contiki-avr-atmega256rfr2.a(rs232.o)
                0x00801cf8                input_handler_1
                0x00801cfa                input_handler_0
 COMMON         0x00801cfc      0x198 contiki-avr-atmega256rfr2.a(rf230bb.o)
                0x00801cfc                rf230_last_correlation
                0x00801cfd                rf230_last_rssi
                0x00801cfe                RF230_receivefail
                0x00801d00                rf230_smallest_rssi
                0x00801d01                rf230_pending
                0x00801d02                rf230_ccawait
                0x00801d03                RF230_receivepackets
                0x00801d05                rf230_txendwait
                0x00801d06                rxframe_tail
                0x00801d07                rxframe_head
                0x00801d08                rxframe
                0x00801e8e                rf230_wakewait
                0x00801e8f                RF230_sendpackets
                0x00801e91                RF230_sendfail
                0x00801e93                RF230_receive_on
 COMMON         0x00801e94       0x56 contiki-avr-atmega256rfr2.a(energest.o)
                0x00801e94                energest_total_time
                0x00801ec4                energest_total_count
                0x00801ec6                energest_current_mode
                0x00801ed2                energest_current_time
 COMMON         0x00801eea      0x2c1 contiki-avr-atmega256rfr2.a(uip6.o)
                0x00801eea                uip_len
                0x00801eec                uip_sappdata
                0x00801eee                uip_acc32
                0x00801ef2                uip_lladdr
                0x00801efa                uip_aligned_buf
                0x00801fea                uip_flags
                0x00801feb                uip_next_hdr
                0x00801fed                uip_udp_conn
                0x00801fef                uip_appdata
                0x00801ff1                uip_conn
                0x00801ff3                uip_conns
                0x008020a3                uip_icmp6_conns
                0x008020a7                uip_listenports
                0x008020af                uip_slen
                0x008020b1                uip_udp_conns
 COMMON         0x008021ab      0x19d contiki-avr-atmega256rfr2.a(uip-ds6.o)
                0x008021ab                uip_ds6_timer_ra
                0x008021b3                uip_ds6_if
                0x008022ce                uip_ds6_netif_addr_list_offset
                0x008022cf                uip_ds6_addr_size
                0x008022d0                uip_ds6_prefix_list
                0x00802340                uip_ds6_timer_periodic
 COMMON         0x00802348        0x2 contiki-avr-atmega256rfr2.a(tcpip.o)
                0x00802348                tcpip_event
                0x00802349                tcpip_icmp6_event
 COMMON         0x0080234a       0xb8 contiki-avr-atmega256rfr2.a(rpl-dag.o)
                0x0080234a                default_instance
                0x0080234c                instance_table
 COMMON         0x00802402        0x8 contiki-avr-atmega256rfr2.a(linkaddr.o)
                0x00802402                linkaddr_node_addr
 COMMON         0x0080240a       0x54 contiki-avr-atmega256rfr2.a(packetbuf.o)
                0x0080240a                packetbuf_addrs
                0x0080242a                packetbuf_attrs
 COMMON         0x0080245e        0x8 contiki-avr-atmega256rfr2.a(sicslowpan.o)
                0x0080245e                frag_sender
 COMMON         0x00802466        0x6 /usr/local/bin/../lib/gcc/avr/4.8.1/../../../../avr/lib/avr6/libc.a(iob.o)
                0x00802466                __iob
                0x0080246c                PROVIDE (__bss_end, .)
                0x0000c9a6                __data_load_start = LOADADDR (.data)
                0x0000ccea                __data_load_end = (__data_load_start + SIZEOF (.data))

.noinit         0x0080246c        0x0
                0x0080246c                PROVIDE (__noinit_start, .)
 *(.noinit*)
                0x0080246c                PROVIDE (__noinit_end, .)
                0x0080246c                _end = .
                0x0080246c                PROVIDE (__heap_start, .)

.eeprom         0x00810000       0x29
 *(.eeprom*)
 .eeprom        0x00810000       0x29 contiki-avr-atmega256rfr2.a(params.o)
                0x00810000                eemem_txpower
                0x00810001                eemem_panaddr
                0x00810003                eemem_panid
                0x00810005                eemem_channel
                0x00810007                eemem_nodeid
                0x00810009                eemem_domain_name
                0x00810013                eemem_server_name
                0x00810021                eemem_mac_address
                0x00810029                __eeprom_end = .

.fuse           0x00820000        0x3
 *(.fuse)
 .fuse          0x00820000        0x3 contiki-avr-atmega256rfr2.a(contiki-main.o)
                0x00820000                __fuse
 *(.lfuse)
 *(.hfuse)
 *(.efuse)

.lock
 *(.lock*)

.signature      0x00840000        0x3
 *(.signature*)
 .signature     0x00840000        0x3 contiki-avr-atmega256rfr2.a(contiki-main.o)
                0x00840000                __signature

.user_signatures
 *(.user_signatures*)

.stab
 *(.stab)

.stabstr
 *(.stabstr)

.stab.excl
 *(.stab.excl)

.stab.exclstr
 *(.stab.exclstr)

.stab.index
 *(.stab.index)

.stab.indexstr
 *(.stab.indexstr)

.comment        0x00000000       0x5c
 *(.comment)
 .comment       0x00000000       0x30 unicast-receiver.co
                                 0x31 (size before relaxing)
 .comment       0x00000000       0x31 contiki-avr-atmega256rfr2.a(servreg-hack.o)
 .comment       0x00000000       0x31 contiki-avr-atmega256rfr2.a(contiki-main.o)
 .comment       0x00000000       0x31 contiki-avr-atmega256rfr2.a(params.o)
 .comment       0x00000000       0x31 contiki-avr-atmega256rfr2.a(ssd1306.o)
 .comment       0x00000000       0x31 contiki-avr-atmega256rfr2.a(clock.o)
 .comment       0x00000000       0x31 contiki-avr-atmega256rfr2.a(rs232.o)
 .comment       0x00000000       0x31 contiki-avr-atmega256rfr2.a(watchdog.o)
 .comment       0x00000000       0x31 contiki-avr-atmega256rfr2.a(random.o)
 .comment       0x00000000       0x31 contiki-avr-atmega256rfr2.a(rf230bb.o)
 .comment       0x00000000       0x31 contiki-avr-atmega256rfr2.a(halbb.o)
 .comment       0x00000000       0x31 contiki-avr-atmega256rfr2.a(autostart.o)
 .comment       0x00000000       0x31 contiki-avr-atmega256rfr2.a(ctimer.o)
 .comment       0x00000000       0x31 contiki-avr-atmega256rfr2.a(energest.o)
 .comment       0x00000000       0x31 contiki-avr-atmega256rfr2.a(etimer.o)
 .comment       0x00000000       0x31 contiki-avr-atmega256rfr2.a(process.o)
 .comment       0x00000000       0x31 contiki-avr-atmega256rfr2.a(rtimer.o)
 .comment       0x00000000       0x31 contiki-avr-atmega256rfr2.a(timer.o)
 .comment       0x00000000       0x31 contiki-avr-atmega256rfr2.a(list.o)
 .comment       0x00000000       0x31 contiki-avr-atmega256rfr2.a(memb.o)
 .comment       0x00000000       0x31 contiki-avr-atmega256rfr2.a(print-stats.o)
 .comment       0x00000000       0x31 contiki-avr-atmega256rfr2.a(uip6.o)
 .comment       0x00000000       0x31 contiki-avr-atmega256rfr2.a(uip-ds6.o)
 .comment       0x00000000       0x31 contiki-avr-atmega256rfr2.a(uip-ds6-nbr.o)
 .comment       0x00000000       0x31 contiki-avr-atmega256rfr2.a(uip-ds6-route.o)
 .comment       0x00000000       0x31 contiki-avr-atmega256rfr2.a(uip-icmp6.o)
 .comment       0x00000000       0x31 contiki-avr-atmega256rfr2.a(uip-nd6.o)
 .comment       0x00000000       0x31 contiki-avr-atmega256rfr2.a(simple-udp.o)
 .comment       0x00000000       0x31 contiki-avr-atmega256rfr2.a(tcpip.o)
 .comment       0x00000000       0x31 contiki-avr-atmega256rfr2.a(uip-debug.o)
 .comment       0x00000000       0x31 contiki-avr-atmega256rfr2.a(uip-packetqueue)
 .comment       0x00000000       0x31 contiki-avr-atmega256rfr2.a(uip-split.o)
 .comment       0x00000000       0x31 contiki-avr-atmega256rfr2.a(uip-udp-packet.)
 .comment       0x00000000       0x31 contiki-avr-atmega256rfr2.a(rpl.o)
 .comment       0x00000000       0x31 contiki-avr-atmega256rfr2.a(rpl-dag.o)
 .comment       0x00000000       0x31 contiki-avr-atmega256rfr2.a(rpl-ext-header.)
 .comment       0x00000000       0x31 contiki-avr-atmega256rfr2.a(rpl-icmp6.o)
 .comment       0x00000000       0x31 contiki-avr-atmega256rfr2.a(rpl-mrhof.o)
 .comment       0x00000000       0x31 contiki-avr-atmega256rfr2.a(rpl-timers.o)
 .comment       0x00000000       0x31 contiki-avr-atmega256rfr2.a(nullmac.o)
 .comment       0x00000000       0x31 contiki-avr-atmega256rfr2.a(nullrdc.o)
 .comment       0x00000000       0x31 contiki-avr-atmega256rfr2.a(linkaddr.o)
 .comment       0x00000000       0x31 contiki-avr-atmega256rfr2.a(nbr-table.o)
 .comment       0x00000000       0x31 contiki-avr-atmega256rfr2.a(netstack.o)
 .comment       0x00000000       0x31 contiki-avr-atmega256rfr2.a(packetbuf.o)
 .comment       0x00000000       0x31 contiki-avr-atmega256rfr2.a(queuebuf.o)
 .comment       0x00000000       0x31 contiki-avr-atmega256rfr2.a(nullsec.o)
 .comment       0x00000000       0x31 contiki-avr-atmega256rfr2.a(rtimer-arch.o)
 .comment       0x00000000       0x31 contiki-avr-atmega256rfr2.a(stimer.o)
 .comment       0x00000000       0x31 contiki-avr-atmega256rfr2.a(sicslowpan.o)
 .comment       0x00000000       0x31 contiki-avr-atmega256rfr2.a(framer-802154.o)
 .comment       0x00000000       0x31 contiki-avr-atmega256rfr2.a(framer.o)
 .comment       0x00000000       0x31 contiki-avr-atmega256rfr2.a(mac.o)
 .comment       0x00000000       0x31 contiki-avr-atmega256rfr2.a(frame802154.o)
 .comment       0x00000000       0x31 /usr/local/bin/../lib/gcc/avr/4.8.1/../../../../avr/lib/avr6/libc.a(rand.o)
 .comment       0x00000000       0x31 /usr/local/bin/../lib/gcc/avr/4.8.1/../../../../avr/lib/avr6/libc.a(iob.o)
 .comment       0x00000000       0x31 /usr/local/bin/../lib/gcc/avr/4.8.1/../../../../avr/lib/avr6/libc.a(printf.o)
 .comment       0x00000000       0x31 /usr/local/bin/../lib/gcc/avr/4.8.1/../../../../avr/lib/avr6/libc.a(printf_p.o)
 .comment       0x00000000       0x31 /usr/local/bin/../lib/gcc/avr/4.8.1/../../../../avr/lib/avr6/libc.a(putchar.o)
 .comment       0x00000000       0x31 /usr/local/bin/../lib/gcc/avr/4.8.1/../../../../avr/lib/avr6/libc.a(puts.o)
 .comment       0x00000030       0x2c /usr/local/bin/../lib/gcc/avr/4.8.1/../../../../avr/lib/avr6/libc.a(vfprintf_std.o)
                                 0x2d (size before relaxing)
 .comment       0x00000000       0x31 /usr/local/bin/../lib/gcc/avr/4.8.1/../../../../avr/lib/avr6/libc.a(fputc.o)

.note.gnu.build-id
 *(.note.gnu.build-id)

.debug
 *(.debug)

.line
 *(.line)

.debug_srcinfo
 *(.debug_srcinfo)

.debug_sfnames
 *(.debug_sfnames)

.debug_aranges  0x00000000     0x14d0
 *(.debug_aranges)
 .debug_aranges
                0x00000000       0x28 unicast-receiver.co
 .debug_aranges
                0x00000028       0x58 contiki-avr-atmega256rfr2.a(servreg-hack.o)
 .debug_aranges
                0x00000080       0x40 contiki-avr-atmega256rfr2.a(contiki-main.o)
 .debug_aranges
                0x000000c0       0x40 contiki-avr-atmega256rfr2.a(params.o)
 .debug_aranges
                0x00000100       0xf0 contiki-avr-atmega256rfr2.a(ssd1306.o)
 .debug_aranges
                0x000001f0       0x60 contiki-avr-atmega256rfr2.a(clock.o)
 .debug_aranges
                0x00000250       0x60 contiki-avr-atmega256rfr2.a(rs232.o)
 .debug_aranges
                0x000002b0       0x40 contiki-avr-atmega256rfr2.a(watchdog.o)
 .debug_aranges
                0x000002f0       0x28 contiki-avr-atmega256rfr2.a(random.o)
 .debug_aranges
                0x00000318      0x130 contiki-avr-atmega256rfr2.a(rf230bb.o)
 .debug_aranges
                0x00000448       0x80 contiki-avr-atmega256rfr2.a(halbb.o)
 .debug_aranges
                0x000004c8       0x28 contiki-avr-atmega256rfr2.a(autostart.o)
 .debug_aranges
                0x000004f0       0x50 contiki-avr-atmega256rfr2.a(ctimer.o)
 .debug_aranges
                0x00000540       0x40 contiki-avr-atmega256rfr2.a(energest.o)
 .debug_aranges
                0x00000580       0x88 contiki-avr-atmega256rfr2.a(etimer.o)
 .debug_aranges
                0x00000608       0x88 contiki-avr-atmega256rfr2.a(process.o)
 .debug_aranges
                0x00000690       0x38 contiki-avr-atmega256rfr2.a(rtimer.o)
 .debug_aranges
                0x000006c8       0x40 contiki-avr-atmega256rfr2.a(timer.o)
 .debug_aranges
                0x00000708       0x78 contiki-avr-atmega256rfr2.a(list.o)
 .debug_aranges
                0x00000780       0x40 contiki-avr-atmega256rfr2.a(memb.o)
 .debug_aranges
                0x000007c0       0x20 contiki-avr-atmega256rfr2.a(print-stats.o)
 .debug_aranges
                0x000007e0       0xb0 contiki-avr-atmega256rfr2.a(uip6.o)
 .debug_aranges
                0x00000890       0xc8 contiki-avr-atmega256rfr2.a(uip-ds6.o)
 .debug_aranges
                0x00000958       0x80 contiki-avr-atmega256rfr2.a(uip-ds6-nbr.o)
 .debug_aranges
                0x000009d8       0xb0 contiki-avr-atmega256rfr2.a(uip-ds6-route.o)
 .debug_aranges
                0x00000a88       0x60 contiki-avr-atmega256rfr2.a(uip-icmp6.o)
 .debug_aranges
                0x00000ae8       0x38 contiki-avr-atmega256rfr2.a(uip-nd6.o)
 .debug_aranges
                0x00000b20       0x40 contiki-avr-atmega256rfr2.a(simple-udp.o)
 .debug_aranges
                0x00000b60       0xa8 contiki-avr-atmega256rfr2.a(tcpip.o)
 .debug_aranges
                0x00000c08       0x28 contiki-avr-atmega256rfr2.a(uip-debug.o)
 .debug_aranges
                0x00000c30       0x50 contiki-avr-atmega256rfr2.a(uip-packetqueue)
 .debug_aranges
                0x00000c80       0x20 contiki-avr-atmega256rfr2.a(uip-split.o)
 .debug_aranges
                0x00000ca0       0x28 contiki-avr-atmega256rfr2.a(uip-udp-packet.)
 .debug_aranges
                0x00000cc8       0x60 contiki-avr-atmega256rfr2.a(rpl.o)
 .debug_aranges
                0x00000d28      0x160 contiki-avr-atmega256rfr2.a(rpl-dag.o)
 .debug_aranges
                0x00000e88       0x48 contiki-avr-atmega256rfr2.a(rpl-ext-header.)
 .debug_aranges
                0x00000ed0       0x88 contiki-avr-atmega256rfr2.a(rpl-icmp6.o)
 .debug_aranges
                0x00000f58       0x48 contiki-avr-atmega256rfr2.a(rpl-mrhof.o)
 .debug_aranges
                0x00000fa0       0x70 contiki-avr-atmega256rfr2.a(rpl-timers.o)
 .debug_aranges
                0x00001010       0x48 contiki-avr-atmega256rfr2.a(nullmac.o)
 .debug_aranges
                0x00001058       0x58 contiki-avr-atmega256rfr2.a(nullrdc.o)
 .debug_aranges
                0x000010b0       0x30 contiki-avr-atmega256rfr2.a(linkaddr.o)
 .debug_aranges
                0x000010e0       0x90 contiki-avr-atmega256rfr2.a(nbr-table.o)
 .debug_aranges
                0x00001170       0x20 contiki-avr-atmega256rfr2.a(netstack.o)
 .debug_aranges
                0x00001190       0xe8 contiki-avr-atmega256rfr2.a(packetbuf.o)
 .debug_aranges
                0x00001278       0x78 contiki-avr-atmega256rfr2.a(queuebuf.o)
 .debug_aranges
                0x000012f0       0x40 contiki-avr-atmega256rfr2.a(nullsec.o)
 .debug_aranges
                0x00001330       0x30 contiki-avr-atmega256rfr2.a(rtimer-arch.o)
 .debug_aranges
                0x00001360       0x48 contiki-avr-atmega256rfr2.a(stimer.o)
 .debug_aranges
                0x000013a8       0x78 contiki-avr-atmega256rfr2.a(sicslowpan.o)
 .debug_aranges
                0x00001420       0x38 contiki-avr-atmega256rfr2.a(framer-802154.o)
 .debug_aranges
                0x00001458       0x20 contiki-avr-atmega256rfr2.a(framer.o)
 .debug_aranges
                0x00001478       0x20 contiki-avr-atmega256rfr2.a(mac.o)
 .debug_aranges
                0x00001498       0x38 contiki-avr-atmega256rfr2.a(frame802154.o)

.debug_pubnames
 *(.debug_pubnames)

.debug_info     0x00000000    0x22f88
 *(.debug_info .gnu.linkonce.wi.*)
 .debug_info    0x00000000     0x10a8 unicast-receiver.co
 .debug_info    0x000010a8     0x1010 contiki-avr-atmega256rfr2.a(servreg-hack.o)
 .debug_info    0x000020b8     0x1351 contiki-avr-atmega256rfr2.a(contiki-main.o)
 .debug_info    0x00003409      0x642 contiki-avr-atmega256rfr2.a(params.o)
 .debug_info    0x00003a4b      0x7ed contiki-avr-atmega256rfr2.a(ssd1306.o)
 .debug_info    0x00004238      0x320 contiki-avr-atmega256rfr2.a(clock.o)
 .debug_info    0x00004558      0x4a5 contiki-avr-atmega256rfr2.a(rs232.o)
 .debug_info    0x000049fd       0xe6 contiki-avr-atmega256rfr2.a(watchdog.o)
 .debug_info    0x00004ae3       0xf7 contiki-avr-atmega256rfr2.a(random.o)
 .debug_info    0x00004bda     0x1a91 contiki-avr-atmega256rfr2.a(rf230bb.o)
 .debug_info    0x0000666b      0x3ba contiki-avr-atmega256rfr2.a(halbb.o)
 .debug_info    0x00006a25      0x203 contiki-avr-atmega256rfr2.a(autostart.o)
 .debug_info    0x00006c28      0x7a7 contiki-avr-atmega256rfr2.a(ctimer.o)
 .debug_info    0x000073cf      0x297 contiki-avr-atmega256rfr2.a(energest.o)
 .debug_info    0x00007666      0x6e9 contiki-avr-atmega256rfr2.a(etimer.o)
 .debug_info    0x00007d4f      0x75c contiki-avr-atmega256rfr2.a(process.o)
 .debug_info    0x000084ab      0x2f5 contiki-avr-atmega256rfr2.a(rtimer.o)
 .debug_info    0x000087a0      0x1c3 contiki-avr-atmega256rfr2.a(timer.o)
 .debug_info    0x00008963      0x3de contiki-avr-atmega256rfr2.a(list.o)
 .debug_info    0x00008d41      0x259 contiki-avr-atmega256rfr2.a(memb.o)
 .debug_info    0x00008f9a      0x1a8 contiki-avr-atmega256rfr2.a(print-stats.o)
 .debug_info    0x00009142     0x15f9 contiki-avr-atmega256rfr2.a(uip6.o)
 .debug_info    0x0000a73b     0x10c9 contiki-avr-atmega256rfr2.a(uip-ds6.o)
 .debug_info    0x0000b804     0x115b contiki-avr-atmega256rfr2.a(uip-ds6-nbr.o)
 .debug_info    0x0000c95f     0x1920 contiki-avr-atmega256rfr2.a(uip-ds6-route.o)
 .debug_info    0x0000e27f      0xb62 contiki-avr-atmega256rfr2.a(uip-icmp6.o)
 .debug_info    0x0000ede1      0xe94 contiki-avr-atmega256rfr2.a(uip-nd6.o)
 .debug_info    0x0000fc75      0x8fd contiki-avr-atmega256rfr2.a(simple-udp.o)
 .debug_info    0x00010572     0x20d4 contiki-avr-atmega256rfr2.a(tcpip.o)
 .debug_info    0x00012646      0x235 contiki-avr-atmega256rfr2.a(uip-debug.o)
 .debug_info    0x0001287b      0x618 contiki-avr-atmega256rfr2.a(uip-packetqueue)
 .debug_info    0x00012e93      0x3a7 contiki-avr-atmega256rfr2.a(uip-split.o)
 .debug_info    0x0001323a      0x43d contiki-avr-atmega256rfr2.a(uip-udp-packet.)
 .debug_info    0x00013677     0x1148 contiki-avr-atmega256rfr2.a(rpl.o)
 .debug_info    0x000147bf     0x2d32 contiki-avr-atmega256rfr2.a(rpl-dag.o)
 .debug_info    0x000174f1      0xffb contiki-avr-atmega256rfr2.a(rpl-ext-header.)
 .debug_info    0x000184ec     0x1f38 contiki-avr-atmega256rfr2.a(rpl-icmp6.o)
 .debug_info    0x0001a424      0xcfa contiki-avr-atmega256rfr2.a(rpl-mrhof.o)
 .debug_info    0x0001b11e     0x104e contiki-avr-atmega256rfr2.a(rpl-timers.o)
 .debug_info    0x0001c16c      0x483 contiki-avr-atmega256rfr2.a(nullmac.o)
 .debug_info    0x0001c5ef      0xaa4 contiki-avr-atmega256rfr2.a(nullrdc.o)
 .debug_info    0x0001d093      0x1fc contiki-avr-atmega256rfr2.a(linkaddr.o)
 .debug_info    0x0001d28f      0xf77 contiki-avr-atmega256rfr2.a(nbr-table.o)
 .debug_info    0x0001e206      0x4e8 contiki-avr-atmega256rfr2.a(netstack.o)
 .debug_info    0x0001e6ee      0x931 contiki-avr-atmega256rfr2.a(packetbuf.o)
 .debug_info    0x0001f01f      0xc1d contiki-avr-atmega256rfr2.a(queuebuf.o)
 .debug_info    0x0001fc3c      0x4ba contiki-avr-atmega256rfr2.a(nullsec.o)
 .debug_info    0x000200f6      0x1f7 contiki-avr-atmega256rfr2.a(rtimer-arch.o)
 .debug_info    0x000202ed      0x1e1 contiki-avr-atmega256rfr2.a(stimer.o)
 .debug_info    0x000204ce     0x1799 contiki-avr-atmega256rfr2.a(sicslowpan.o)
 .debug_info    0x00021c67      0x9d2 contiki-avr-atmega256rfr2.a(framer-802154.o)
 .debug_info    0x00022639      0x21a contiki-avr-atmega256rfr2.a(framer.o)
 .debug_info    0x00022853      0x148 contiki-avr-atmega256rfr2.a(mac.o)
 .debug_info    0x0002299b      0x5ed contiki-avr-atmega256rfr2.a(frame802154.o)

.debug_abbrev   0x00000000     0x8810
 *(.debug_abbrev)
 .debug_abbrev  0x00000000      0x338 unicast-receiver.co
 .debug_abbrev  0x00000338      0x424 contiki-avr-atmega256rfr2.a(servreg-hack.o)
 .debug_abbrev  0x0000075c      0x396 contiki-avr-atmega256rfr2.a(contiki-main.o)
 .debug_abbrev  0x00000af2      0x1a0 contiki-avr-atmega256rfr2.a(params.o)
 .debug_abbrev  0x00000c92      0x1ee contiki-avr-atmega256rfr2.a(ssd1306.o)
 .debug_abbrev  0x00000e80      0x1ec contiki-avr-atmega256rfr2.a(clock.o)
 .debug_abbrev  0x0000106c      0x25b contiki-avr-atmega256rfr2.a(rs232.o)
 .debug_abbrev  0x000012c7       0x51 contiki-avr-atmega256rfr2.a(watchdog.o)
 .debug_abbrev  0x00001318       0xc6 contiki-avr-atmega256rfr2.a(random.o)
 .debug_abbrev  0x000013de      0x50f contiki-avr-atmega256rfr2.a(rf230bb.o)
 .debug_abbrev  0x000018ed      0x196 contiki-avr-atmega256rfr2.a(halbb.o)
 .debug_abbrev  0x00001a83      0x129 contiki-avr-atmega256rfr2.a(autostart.o)
 .debug_abbrev  0x00001bac      0x267 contiki-avr-atmega256rfr2.a(ctimer.o)
 .debug_abbrev  0x00001e13      0x141 contiki-avr-atmega256rfr2.a(energest.o)
 .debug_abbrev  0x00001f54      0x334 contiki-avr-atmega256rfr2.a(etimer.o)
 .debug_abbrev  0x00002288      0x38f contiki-avr-atmega256rfr2.a(process.o)
 .debug_abbrev  0x00002617      0x19c contiki-avr-atmega256rfr2.a(rtimer.o)
 .debug_abbrev  0x000027b3       0xfb contiki-avr-atmega256rfr2.a(timer.o)
 .debug_abbrev  0x000028ae      0x1a6 contiki-avr-atmega256rfr2.a(list.o)
 .debug_abbrev  0x00002a54      0x11c contiki-avr-atmega256rfr2.a(memb.o)
 .debug_abbrev  0x00002b70      0x111 contiki-avr-atmega256rfr2.a(print-stats.o)
 .debug_abbrev  0x00002c81      0x435 contiki-avr-atmega256rfr2.a(uip6.o)
 .debug_abbrev  0x000030b6      0x340 contiki-avr-atmega256rfr2.a(uip-ds6.o)
 .debug_abbrev  0x000033f6      0x355 contiki-avr-atmega256rfr2.a(uip-ds6-nbr.o)
 .debug_abbrev  0x0000374b      0x3ef contiki-avr-atmega256rfr2.a(uip-ds6-route.o)
 .debug_abbrev  0x00003b3a      0x3d1 contiki-avr-atmega256rfr2.a(uip-icmp6.o)
 .debug_abbrev  0x00003f0b      0x36a contiki-avr-atmega256rfr2.a(uip-nd6.o)
 .debug_abbrev  0x00004275      0x289 contiki-avr-atmega256rfr2.a(simple-udp.o)
 .debug_abbrev  0x000044fe      0x576 contiki-avr-atmega256rfr2.a(tcpip.o)
 .debug_abbrev  0x00004a74      0x10c contiki-avr-atmega256rfr2.a(uip-debug.o)
 .debug_abbrev  0x00004b80      0x25c contiki-avr-atmega256rfr2.a(uip-packetqueue)
 .debug_abbrev  0x00004ddc      0x18d contiki-avr-atmega256rfr2.a(uip-split.o)
 .debug_abbrev  0x00004f69      0x21d contiki-avr-atmega256rfr2.a(uip-udp-packet.)
 .debug_abbrev  0x00005186      0x374 contiki-avr-atmega256rfr2.a(rpl.o)
 .debug_abbrev  0x000054fa      0x57b contiki-avr-atmega256rfr2.a(rpl-dag.o)
 .debug_abbrev  0x00005a75      0x312 contiki-avr-atmega256rfr2.a(rpl-ext-header.)
 .debug_abbrev  0x00005d87      0x45a contiki-avr-atmega256rfr2.a(rpl-icmp6.o)
 .debug_abbrev  0x000061e1      0x2dc contiki-avr-atmega256rfr2.a(rpl-mrhof.o)
 .debug_abbrev  0x000064bd      0x365 contiki-avr-atmega256rfr2.a(rpl-timers.o)
 .debug_abbrev  0x00006822      0x18d contiki-avr-atmega256rfr2.a(nullmac.o)
 .debug_abbrev  0x000069af      0x377 contiki-avr-atmega256rfr2.a(nullrdc.o)
 .debug_abbrev  0x00006d26      0x13e contiki-avr-atmega256rfr2.a(linkaddr.o)
 .debug_abbrev  0x00006e64      0x397 contiki-avr-atmega256rfr2.a(nbr-table.o)
 .debug_abbrev  0x000071fb      0x11b contiki-avr-atmega256rfr2.a(netstack.o)
 .debug_abbrev  0x00007316      0x343 contiki-avr-atmega256rfr2.a(packetbuf.o)
 .debug_abbrev  0x00007659      0x316 contiki-avr-atmega256rfr2.a(queuebuf.o)
 .debug_abbrev  0x0000796f      0x1b7 contiki-avr-atmega256rfr2.a(nullsec.o)
 .debug_abbrev  0x00007b26       0xfe contiki-avr-atmega256rfr2.a(rtimer-arch.o)
 .debug_abbrev  0x00007c24       0xd4 contiki-avr-atmega256rfr2.a(stimer.o)
 .debug_abbrev  0x00007cf8      0x4ad contiki-avr-atmega256rfr2.a(sicslowpan.o)
 .debug_abbrev  0x000081a5      0x2cb contiki-avr-atmega256rfr2.a(framer-802154.o)
 .debug_abbrev  0x00008470       0xef contiki-avr-atmega256rfr2.a(framer.o)
 .debug_abbrev  0x0000855f       0xc0 contiki-avr-atmega256rfr2.a(mac.o)
 .debug_abbrev  0x0000861f      0x1f1 contiki-avr-atmega256rfr2.a(frame802154.o)

.debug_line     0x00000000     0x77fa
 *(.debug_line .debug_line.* .debug_line_end)
 .debug_line    0x00000000      0x223 unicast-receiver.co
 .debug_line    0x00000223      0x2d9 contiki-avr-atmega256rfr2.a(servreg-hack.o)
 .debug_line    0x000004fc      0x4f9 contiki-avr-atmega256rfr2.a(contiki-main.o)
 .debug_line    0x000009f5      0x16f contiki-avr-atmega256rfr2.a(params.o)
 .debug_line    0x00000b64      0x2c3 contiki-avr-atmega256rfr2.a(ssd1306.o)
 .debug_line    0x00000e27      0x1a9 contiki-avr-atmega256rfr2.a(clock.o)
 .debug_line    0x00000fd0      0x169 contiki-avr-atmega256rfr2.a(rs232.o)
 .debug_line    0x00001139       0xb5 contiki-avr-atmega256rfr2.a(watchdog.o)
 .debug_line    0x000011ee       0x7b contiki-avr-atmega256rfr2.a(random.o)
 .debug_line    0x00001269      0x5d5 contiki-avr-atmega256rfr2.a(rf230bb.o)
 .debug_line    0x0000183e      0x185 contiki-avr-atmega256rfr2.a(halbb.o)
 .debug_line    0x000019c3       0x93 contiki-avr-atmega256rfr2.a(autostart.o)
 .debug_line    0x00001a56      0x1b3 contiki-avr-atmega256rfr2.a(ctimer.o)
 .debug_line    0x00001c09       0xe8 contiki-avr-atmega256rfr2.a(energest.o)
 .debug_line    0x00001cf1      0x21c contiki-avr-atmega256rfr2.a(etimer.o)
 .debug_line    0x00001f0d      0x1e7 contiki-avr-atmega256rfr2.a(process.o)
 .debug_line    0x000020f4       0xa4 contiki-avr-atmega256rfr2.a(rtimer.o)
 .debug_line    0x00002198       0xde contiki-avr-atmega256rfr2.a(timer.o)
 .debug_line    0x00002276      0x15c contiki-avr-atmega256rfr2.a(list.o)
 .debug_line    0x000023d2       0xd9 contiki-avr-atmega256rfr2.a(memb.o)
 .debug_line    0x000024ab       0xc3 contiki-avr-atmega256rfr2.a(print-stats.o)
 .debug_line    0x0000256e      0x6ed contiki-avr-atmega256rfr2.a(uip6.o)
 .debug_line    0x00002c5b      0x43f contiki-avr-atmega256rfr2.a(uip-ds6.o)
 .debug_line    0x0000309a      0x35d contiki-avr-atmega256rfr2.a(uip-ds6-nbr.o)
 .debug_line    0x000033f7      0x43a contiki-avr-atmega256rfr2.a(uip-ds6-route.o)
 .debug_line    0x00003831      0x292 contiki-avr-atmega256rfr2.a(uip-icmp6.o)
 .debug_line    0x00003ac3      0x320 contiki-avr-atmega256rfr2.a(uip-nd6.o)
 .debug_line    0x00003de3      0x165 contiki-avr-atmega256rfr2.a(simple-udp.o)
 .debug_line    0x00003f48      0x423 contiki-avr-atmega256rfr2.a(tcpip.o)
 .debug_line    0x0000436b       0xbc contiki-avr-atmega256rfr2.a(uip-debug.o)
 .debug_line    0x00004427      0x1cb contiki-avr-atmega256rfr2.a(uip-packetqueue)
 .debug_line    0x000045f2       0xbc contiki-avr-atmega256rfr2.a(uip-split.o)
 .debug_line    0x000046ae       0xe3 contiki-avr-atmega256rfr2.a(uip-udp-packet.)
 .debug_line    0x00004791      0x30c contiki-avr-atmega256rfr2.a(rpl.o)
 .debug_line    0x00004a9d      0x7fb contiki-avr-atmega256rfr2.a(rpl-dag.o)
 .debug_line    0x00005298      0x2e8 contiki-avr-atmega256rfr2.a(rpl-ext-header.)
 .debug_line    0x00005580      0x524 contiki-avr-atmega256rfr2.a(rpl-icmp6.o)
 .debug_line    0x00005aa4      0x25d contiki-avr-atmega256rfr2.a(rpl-mrhof.o)
 .debug_line    0x00005d01      0x2bd contiki-avr-atmega256rfr2.a(rpl-timers.o)
 .debug_line    0x00005fbe      0x137 contiki-avr-atmega256rfr2.a(nullmac.o)
 .debug_line    0x000060f5      0x1f7 contiki-avr-atmega256rfr2.a(nullrdc.o)
 .debug_line    0x000062ec       0xcf contiki-avr-atmega256rfr2.a(linkaddr.o)
 .debug_line    0x000063bb      0x27e contiki-avr-atmega256rfr2.a(nbr-table.o)
 .debug_line    0x00006639       0xd1 contiki-avr-atmega256rfr2.a(netstack.o)
 .debug_line    0x0000670a      0x2a8 contiki-avr-atmega256rfr2.a(packetbuf.o)
 .debug_line    0x000069b2      0x1ca contiki-avr-atmega256rfr2.a(queuebuf.o)
 .debug_line    0x00006b7c      0x131 contiki-avr-atmega256rfr2.a(nullsec.o)
 .debug_line    0x00006cad       0xe7 contiki-avr-atmega256rfr2.a(rtimer-arch.o)
 .debug_line    0x00006d94       0xbe contiki-avr-atmega256rfr2.a(stimer.o)
 .debug_line    0x00006e52      0x564 contiki-avr-atmega256rfr2.a(sicslowpan.o)
 .debug_line    0x000073b6      0x183 contiki-avr-atmega256rfr2.a(framer-802154.o)
 .debug_line    0x00007539       0xdb contiki-avr-atmega256rfr2.a(framer.o)
 .debug_line    0x00007614       0x55 contiki-avr-atmega256rfr2.a(mac.o)
 .debug_line    0x00007669      0x191 contiki-avr-atmega256rfr2.a(frame802154.o)

.debug_frame    0x00000000     0x3d80
 *(.debug_frame)
 .debug_frame   0x00000000       0x90 unicast-receiver.co
 .debug_frame   0x00000090      0x12c contiki-avr-atmega256rfr2.a(servreg-hack.o)
 .debug_frame   0x000001bc      0x1b4 contiki-avr-atmega256rfr2.a(contiki-main.o)
 .debug_frame   0x00000370       0x7c contiki-avr-atmega256rfr2.a(params.o)
 .debug_frame   0x000003ec      0x21c contiki-avr-atmega256rfr2.a(ssd1306.o)
 .debug_frame   0x00000608      0x11c contiki-avr-atmega256rfr2.a(clock.o)
 .debug_frame   0x00000724      0x14c contiki-avr-atmega256rfr2.a(rs232.o)
 .debug_frame   0x00000870       0x64 contiki-avr-atmega256rfr2.a(watchdog.o)
 .debug_frame   0x000008d4       0x34 contiki-avr-atmega256rfr2.a(random.o)
 .debug_frame   0x00000908      0x2e4 contiki-avr-atmega256rfr2.a(rf230bb.o)
 .debug_frame   0x00000bec      0x190 contiki-avr-atmega256rfr2.a(halbb.o)
 .debug_frame   0x00000d7c       0x4c contiki-avr-atmega256rfr2.a(autostart.o)
 .debug_frame   0x00000dc8       0xf8 contiki-avr-atmega256rfr2.a(ctimer.o)
 .debug_frame   0x00000ec0       0x88 contiki-avr-atmega256rfr2.a(energest.o)
 .debug_frame   0x00000f48      0x150 contiki-avr-atmega256rfr2.a(etimer.o)
 .debug_frame   0x00001098      0x148 contiki-avr-atmega256rfr2.a(process.o)
 .debug_frame   0x000011e0       0x6c contiki-avr-atmega256rfr2.a(rtimer.o)
 .debug_frame   0x0000124c       0x94 contiki-avr-atmega256rfr2.a(timer.o)
 .debug_frame   0x000012e0       0xfc contiki-avr-atmega256rfr2.a(list.o)
 .debug_frame   0x000013dc       0x70 contiki-avr-atmega256rfr2.a(memb.o)
 .debug_frame   0x0000144c       0x84 contiki-avr-atmega256rfr2.a(print-stats.o)
 .debug_frame   0x000014d0      0x1bc contiki-avr-atmega256rfr2.a(uip6.o)
 .debug_frame   0x0000168c      0x37c contiki-avr-atmega256rfr2.a(uip-ds6.o)
 .debug_frame   0x00001a08      0x1c0 contiki-avr-atmega256rfr2.a(uip-ds6-nbr.o)
 .debug_frame   0x00001bc8      0x25c contiki-avr-atmega256rfr2.a(uip-ds6-route.o)
 .debug_frame   0x00001e24      0x134 contiki-avr-atmega256rfr2.a(uip-icmp6.o)
 .debug_frame   0x00001f58       0xb0 contiki-avr-atmega256rfr2.a(uip-nd6.o)
 .debug_frame   0x00002008       0xf8 contiki-avr-atmega256rfr2.a(simple-udp.o)
 .debug_frame   0x00002100      0x1cc contiki-avr-atmega256rfr2.a(tcpip.o)
 .debug_frame   0x000022cc       0xe4 contiki-avr-atmega256rfr2.a(uip-debug.o)
 .debug_frame   0x000023b0       0xb8 contiki-avr-atmega256rfr2.a(uip-packetqueue)
 .debug_frame   0x00002468       0x38 contiki-avr-atmega256rfr2.a(uip-split.o)
 .debug_frame   0x000024a0       0x64 contiki-avr-atmega256rfr2.a(uip-udp-packet.)
 .debug_frame   0x00002504      0x134 contiki-avr-atmega256rfr2.a(rpl.o)
 .debug_frame   0x00002638      0x5cc contiki-avr-atmega256rfr2.a(rpl-dag.o)
 .debug_frame   0x00002c04       0xc4 contiki-avr-atmega256rfr2.a(rpl-ext-header.)
 .debug_frame   0x00002cc8      0x24c contiki-avr-atmega256rfr2.a(rpl-icmp6.o)
 .debug_frame   0x00002f14       0xe0 contiki-avr-atmega256rfr2.a(rpl-mrhof.o)
 .debug_frame   0x00002ff4      0x144 contiki-avr-atmega256rfr2.a(rpl-timers.o)
 .debug_frame   0x00003138       0x74 contiki-avr-atmega256rfr2.a(nullmac.o)
 .debug_frame   0x000031ac       0xdc contiki-avr-atmega256rfr2.a(nullrdc.o)
 .debug_frame   0x00003288       0x44 contiki-avr-atmega256rfr2.a(linkaddr.o)
 .debug_frame   0x000032cc      0x1d4 contiki-avr-atmega256rfr2.a(nbr-table.o)
 .debug_frame   0x000034a0       0x24 contiki-avr-atmega256rfr2.a(netstack.o)
 .debug_frame   0x000034c4      0x23c contiki-avr-atmega256rfr2.a(packetbuf.o)
 .debug_frame   0x00003700      0x120 contiki-avr-atmega256rfr2.a(queuebuf.o)
 .debug_frame   0x00003820       0x78 contiki-avr-atmega256rfr2.a(nullsec.o)
 .debug_frame   0x00003898       0x8c contiki-avr-atmega256rfr2.a(rtimer-arch.o)
 .debug_frame   0x00003924       0xe8 contiki-avr-atmega256rfr2.a(stimer.o)
 .debug_frame   0x00003a0c      0x190 contiki-avr-atmega256rfr2.a(sicslowpan.o)
 .debug_frame   0x00003b9c       0xa0 contiki-avr-atmega256rfr2.a(framer-802154.o)
 .debug_frame   0x00003c3c       0x30 contiki-avr-atmega256rfr2.a(framer.o)
 .debug_frame   0x00003c6c       0x24 contiki-avr-atmega256rfr2.a(mac.o)
 .debug_frame   0x00003c90       0xf0 contiki-avr-atmega256rfr2.a(frame802154.o)

.debug_str      0x00000000     0x5376
 *(.debug_str)
 .debug_str     0x00000000      0x85a unicast-receiver.co
                                0x9da (size before relaxing)
 .debug_str     0x0000085a      0x2ce contiki-avr-atmega256rfr2.a(servreg-hack.o)
                                0x6dd (size before relaxing)
 .debug_str     0x00000b28      0x54e contiki-avr-atmega256rfr2.a(contiki-main.o)
                                0xaa3 (size before relaxing)
 .debug_str     0x00001076      0x194 contiki-avr-atmega256rfr2.a(params.o)
                                0x45f (size before relaxing)
 .debug_str     0x0000120a      0x28a contiki-avr-atmega256rfr2.a(ssd1306.o)
                                0x3e1 (size before relaxing)
 .debug_str     0x00001494      0x108 contiki-avr-atmega256rfr2.a(clock.o)
                                0x267 (size before relaxing)
 .debug_str     0x0000159c       0xe6 contiki-avr-atmega256rfr2.a(rs232.o)
                                0x358 (size before relaxing)
 .debug_str     0x00001682       0x6b contiki-avr-atmega256rfr2.a(watchdog.o)
                                0x176 (size before relaxing)
 .debug_str     0x000016ed       0x26 contiki-avr-atmega256rfr2.a(random.o)
                                0x150 (size before relaxing)
 .debug_str     0x00001713      0x9dc contiki-avr-atmega256rfr2.a(rf230bb.o)
                                0xf43 (size before relaxing)
 .debug_str     0x000020ef       0xf2 contiki-avr-atmega256rfr2.a(halbb.o)
                                0x2f9 (size before relaxing)
 .debug_str     0x000021e1       0x3a contiki-avr-atmega256rfr2.a(autostart.o)
                                0x1c1 (size before relaxing)
 .debug_str     0x0000221b       0xce contiki-avr-atmega256rfr2.a(ctimer.o)
                                0x42f (size before relaxing)
 .debug_str     0x000022e9       0x9e contiki-avr-atmega256rfr2.a(energest.o)
                                0x34b (size before relaxing)
 .debug_str     0x00002387       0xde contiki-avr-atmega256rfr2.a(etimer.o)
                                0x352 (size before relaxing)
 .debug_str     0x00002465      0x10e contiki-avr-atmega256rfr2.a(process.o)
                                0x2e5 (size before relaxing)
 .debug_str     0x00002573       0xdd contiki-avr-atmega256rfr2.a(rtimer.o)
                                0x342 (size before relaxing)
 .debug_str     0x00002650       0x1a contiki-avr-atmega256rfr2.a(timer.o)
                                0x19b (size before relaxing)
 .debug_str     0x0000266a       0x69 contiki-avr-atmega256rfr2.a(list.o)
                                0x159 (size before relaxing)
 .debug_str     0x000026d3       0x47 contiki-avr-atmega256rfr2.a(memb.o)
                                0x191 (size before relaxing)
 .debug_str     0x0000271a       0x33 contiki-avr-atmega256rfr2.a(print-stats.o)
                                0x2ca (size before relaxing)
 .debug_str     0x0000274d      0x527 contiki-avr-atmega256rfr2.a(uip6.o)
                                0xa60 (size before relaxing)
 .debug_str     0x00002c74      0x2e4 contiki-avr-atmega256rfr2.a(uip-ds6.o)
                                0x832 (size before relaxing)
 .debug_str     0x00002f58      0x2c9 contiki-avr-atmega256rfr2.a(uip-ds6-nbr.o)
                                0xbe5 (size before relaxing)
 .debug_str     0x00003221      0x329 contiki-avr-atmega256rfr2.a(uip-ds6-route.o)
                                0xab8 (size before relaxing)
 .debug_str     0x0000354a      0x219 contiki-avr-atmega256rfr2.a(uip-icmp6.o)
                                0x730 (size before relaxing)
 .debug_str     0x00003763      0x127 contiki-avr-atmega256rfr2.a(uip-nd6.o)
                                0x843 (size before relaxing)
 .debug_str     0x0000388a       0xbc contiki-avr-atmega256rfr2.a(simple-udp.o)
                                0x55b (size before relaxing)
 .debug_str     0x00003946      0x1e0 contiki-avr-atmega256rfr2.a(tcpip.o)
                                0xea4 (size before relaxing)
 .debug_str     0x00003b26       0x38 contiki-avr-atmega256rfr2.a(uip-debug.o)
                                0x1cc (size before relaxing)
 .debug_str     0x00003b5e       0x72 contiki-avr-atmega256rfr2.a(uip-packetqueue)
                                0x480 (size before relaxing)
 .debug_str     0x00003bd0       0x32 contiki-avr-atmega256rfr2.a(uip-split.o)
                                0x268 (size before relaxing)
 .debug_str     0x00003c02       0x44 contiki-avr-atmega256rfr2.a(uip-udp-packet.)
                                0x2a4 (size before relaxing)
 .debug_str     0x00003c46      0x190 contiki-avr-atmega256rfr2.a(rpl.o)
                                0xa51 (size before relaxing)
 .debug_str     0x00003dd6      0x44c contiki-avr-atmega256rfr2.a(rpl-dag.o)
                                0xcff (size before relaxing)
 .debug_str     0x00004222       0xaa contiki-avr-atmega256rfr2.a(rpl-ext-header.)
                                0xb1b (size before relaxing)
 .debug_str     0x000042cc      0x120 contiki-avr-atmega256rfr2.a(rpl-icmp6.o)
                                0xfb3 (size before relaxing)
 .debug_str     0x000043ec       0xfc contiki-avr-atmega256rfr2.a(rpl-mrhof.o)
                                0x7d8 (size before relaxing)
 .debug_str     0x000044e8       0xa0 contiki-avr-atmega256rfr2.a(rpl-timers.o)
                                0x86d (size before relaxing)
 .debug_str     0x00004588       0x89 contiki-avr-atmega256rfr2.a(nullmac.o)
                                0x394 (size before relaxing)
 .debug_str     0x00004611      0x10c contiki-avr-atmega256rfr2.a(nullrdc.o)
                                0x956 (size before relaxing)
 .debug_str     0x0000471d       0x37 contiki-avr-atmega256rfr2.a(linkaddr.o)
                                0x1b0 (size before relaxing)
 .debug_str     0x00004754      0x1a9 contiki-avr-atmega256rfr2.a(nbr-table.o)
                                0x5b0 (size before relaxing)
 .debug_str     0x000048fd       0x3e contiki-avr-atmega256rfr2.a(netstack.o)
                                0x313 (size before relaxing)
 .debug_str     0x0000493b      0x18f contiki-avr-atmega256rfr2.a(packetbuf.o)
                                0x853 (size before relaxing)
 .debug_str     0x00004aca      0x199 contiki-avr-atmega256rfr2.a(queuebuf.o)
                                0x8d5 (size before relaxing)
 .debug_str     0x00004c63       0x32 contiki-avr-atmega256rfr2.a(nullsec.o)
                                0x68c (size before relaxing)
 .debug_str     0x00004c95       0x2d contiki-avr-atmega256rfr2.a(rtimer-arch.o)
                                0x31d (size before relaxing)
 .debug_str     0x00004cc2       0x46 contiki-avr-atmega256rfr2.a(stimer.o)
                                0x1a2 (size before relaxing)
 .debug_str     0x00004d08      0x361 contiki-avr-atmega256rfr2.a(sicslowpan.o)
                                0xd94 (size before relaxing)
 .debug_str     0x00005069      0x22b contiki-avr-atmega256rfr2.a(framer-802154.o)
                                0x917 (size before relaxing)
 .debug_str     0x00005294       0x42 contiki-avr-atmega256rfr2.a(framer.o)
                                0x235 (size before relaxing)
 .debug_str     0x000052d6       0x23 contiki-avr-atmega256rfr2.a(mac.o)
                                0x1bb (size before relaxing)
 .debug_str     0x000052f9       0x7d contiki-avr-atmega256rfr2.a(frame802154.o)
                                0x3b2 (size before relaxing)

.debug_loc      0x00000000    0x120b4
 *(.debug_loc)
 .debug_loc     0x00000000      0x37e unicast-receiver.co
 .debug_loc     0x0000037e      0x799 contiki-avr-atmega256rfr2.a(servreg-hack.o)
 .debug_loc     0x00000b17      0x6a0 contiki-avr-atmega256rfr2.a(contiki-main.o)
 .debug_loc     0x000011b7      0x223 contiki-avr-atmega256rfr2.a(params.o)
 .debug_loc     0x000013da      0x357 contiki-avr-atmega256rfr2.a(ssd1306.o)
 .debug_loc     0x00001731      0x345 contiki-avr-atmega256rfr2.a(clock.o)
 .debug_loc     0x00001a76      0x3fc contiki-avr-atmega256rfr2.a(rs232.o)
 .debug_loc     0x00001e72       0x26 contiki-avr-atmega256rfr2.a(random.o)
 .debug_loc     0x00001e98      0xb9c contiki-avr-atmega256rfr2.a(rf230bb.o)
 .debug_loc     0x00002a34      0x493 contiki-avr-atmega256rfr2.a(halbb.o)
 .debug_loc     0x00002ec7       0xaa contiki-avr-atmega256rfr2.a(autostart.o)
 .debug_loc     0x00002f71      0x5b9 contiki-avr-atmega256rfr2.a(ctimer.o)
 .debug_loc     0x0000352a      0x158 contiki-avr-atmega256rfr2.a(energest.o)
 .debug_loc     0x00003682      0x5bb contiki-avr-atmega256rfr2.a(etimer.o)
 .debug_loc     0x00003c3d      0x5da contiki-avr-atmega256rfr2.a(process.o)
 .debug_loc     0x00004217      0x246 contiki-avr-atmega256rfr2.a(rtimer.o)
 .debug_loc     0x0000445d      0x20e contiki-avr-atmega256rfr2.a(timer.o)
 .debug_loc     0x0000466b      0x472 contiki-avr-atmega256rfr2.a(list.o)
 .debug_loc     0x00004add      0x1eb contiki-avr-atmega256rfr2.a(memb.o)
 .debug_loc     0x00004cc8      0x117 contiki-avr-atmega256rfr2.a(print-stats.o)
 .debug_loc     0x00004ddf      0x843 contiki-avr-atmega256rfr2.a(uip6.o)
 .debug_loc     0x00005622      0xd58 contiki-avr-atmega256rfr2.a(uip-ds6.o)
 .debug_loc     0x0000637a      0x7bb contiki-avr-atmega256rfr2.a(uip-ds6-nbr.o)
 .debug_loc     0x00006b35      0xdda contiki-avr-atmega256rfr2.a(uip-ds6-route.o)
 .debug_loc     0x0000790f      0x593 contiki-avr-atmega256rfr2.a(uip-icmp6.o)
 .debug_loc     0x00007ea2      0x385 contiki-avr-atmega256rfr2.a(uip-nd6.o)
 .debug_loc     0x00008227      0x657 contiki-avr-atmega256rfr2.a(simple-udp.o)
 .debug_loc     0x0000887e      0xbbc contiki-avr-atmega256rfr2.a(tcpip.o)
 .debug_loc     0x0000943a      0x351 contiki-avr-atmega256rfr2.a(uip-debug.o)
 .debug_loc     0x0000978b      0x282 contiki-avr-atmega256rfr2.a(uip-packetqueue)
 .debug_loc     0x00009a0d       0xa1 contiki-avr-atmega256rfr2.a(uip-split.o)
 .debug_loc     0x00009aae      0x1ed contiki-avr-atmega256rfr2.a(uip-udp-packet.)
 .debug_loc     0x00009c9b      0x60b contiki-avr-atmega256rfr2.a(rpl.o)
 .debug_loc     0x0000a2a6     0x24b7 contiki-avr-atmega256rfr2.a(rpl-dag.o)
 .debug_loc     0x0000c75d      0x386 contiki-avr-atmega256rfr2.a(rpl-ext-header.)
 .debug_loc     0x0000cae3     0x113a contiki-avr-atmega256rfr2.a(rpl-icmp6.o)
 .debug_loc     0x0000dc1d      0x562 contiki-avr-atmega256rfr2.a(rpl-mrhof.o)
 .debug_loc     0x0000e17f      0x83d contiki-avr-atmega256rfr2.a(rpl-timers.o)
 .debug_loc     0x0000e9bc       0x72 contiki-avr-atmega256rfr2.a(nullmac.o)
 .debug_loc     0x0000ea2e      0x306 contiki-avr-atmega256rfr2.a(nullrdc.o)
 .debug_loc     0x0000ed34       0x82 contiki-avr-atmega256rfr2.a(linkaddr.o)
 .debug_loc     0x0000edb6      0xda0 contiki-avr-atmega256rfr2.a(nbr-table.o)
 .debug_loc     0x0000fb56      0x544 contiki-avr-atmega256rfr2.a(packetbuf.o)
 .debug_loc     0x0001009a      0x48a contiki-avr-atmega256rfr2.a(queuebuf.o)
 .debug_loc     0x00010524       0xfb contiki-avr-atmega256rfr2.a(nullsec.o)
 .debug_loc     0x0001061f       0xfd contiki-avr-atmega256rfr2.a(rtimer-arch.o)
 .debug_loc     0x0001071c      0x2d6 contiki-avr-atmega256rfr2.a(stimer.o)
 .debug_loc     0x000109f2      0xab1 contiki-avr-atmega256rfr2.a(sicslowpan.o)
 .debug_loc     0x000114a3      0x1aa contiki-avr-atmega256rfr2.a(framer-802154.o)
 .debug_loc     0x0001164d       0x57 contiki-avr-atmega256rfr2.a(framer.o)
 .debug_loc     0x000116a4      0x108 contiki-avr-atmega256rfr2.a(mac.o)
 .debug_loc     0x000117ac      0x908 contiki-avr-atmega256rfr2.a(frame802154.o)

.debug_macinfo
 *(.debug_macinfo)

.debug_weaknames
 *(.debug_weaknames)

.debug_funcnames
 *(.debug_funcnames)

.debug_typenames
 *(.debug_typenames)

.debug_varnames
 *(.debug_varnames)

.debug_pubtypes
 *(.debug_pubtypes)

.debug_ranges   0x00000000     0x1388
 *(.debug_ranges)
 .debug_ranges  0x00000000       0x18 unicast-receiver.co
 .debug_ranges  0x00000018       0x60 contiki-avr-atmega256rfr2.a(servreg-hack.o)
 .debug_ranges  0x00000078       0x60 contiki-avr-atmega256rfr2.a(contiki-main.o)
 .debug_ranges  0x000000d8       0x30 contiki-avr-atmega256rfr2.a(params.o)
 .debug_ranges  0x00000108       0xe0 contiki-avr-atmega256rfr2.a(ssd1306.o)
 .debug_ranges  0x000001e8       0x50 contiki-avr-atmega256rfr2.a(clock.o)
 .debug_ranges  0x00000238       0x50 contiki-avr-atmega256rfr2.a(rs232.o)
 .debug_ranges  0x00000288       0x30 contiki-avr-atmega256rfr2.a(watchdog.o)
 .debug_ranges  0x000002b8       0x18 contiki-avr-atmega256rfr2.a(random.o)
 .debug_ranges  0x000002d0      0x138 contiki-avr-atmega256rfr2.a(rf230bb.o)
 .debug_ranges  0x00000408       0x70 contiki-avr-atmega256rfr2.a(halbb.o)
 .debug_ranges  0x00000478       0x18 contiki-avr-atmega256rfr2.a(autostart.o)
 .debug_ranges  0x00000490       0x40 contiki-avr-atmega256rfr2.a(ctimer.o)
 .debug_ranges  0x000004d0       0x30 contiki-avr-atmega256rfr2.a(energest.o)
 .debug_ranges  0x00000500       0xa8 contiki-avr-atmega256rfr2.a(etimer.o)
 .debug_ranges  0x000005a8       0x78 contiki-avr-atmega256rfr2.a(process.o)
 .debug_ranges  0x00000620       0x28 contiki-avr-atmega256rfr2.a(rtimer.o)
 .debug_ranges  0x00000648       0x30 contiki-avr-atmega256rfr2.a(timer.o)
 .debug_ranges  0x00000678       0x68 contiki-avr-atmega256rfr2.a(list.o)
 .debug_ranges  0x000006e0       0x30 contiki-avr-atmega256rfr2.a(memb.o)
 .debug_ranges  0x00000710       0x10 contiki-avr-atmega256rfr2.a(print-stats.o)
 .debug_ranges  0x00000720       0xa0 contiki-avr-atmega256rfr2.a(uip6.o)
 .debug_ranges  0x000007c0       0xb8 contiki-avr-atmega256rfr2.a(uip-ds6.o)
 .debug_ranges  0x00000878       0x70 contiki-avr-atmega256rfr2.a(uip-ds6-nbr.o)
 .debug_ranges  0x000008e8       0xd0 contiki-avr-atmega256rfr2.a(uip-ds6-route.o)
 .debug_ranges  0x000009b8       0x50 contiki-avr-atmega256rfr2.a(uip-icmp6.o)
 .debug_ranges  0x00000a08       0x60 contiki-avr-atmega256rfr2.a(uip-nd6.o)
 .debug_ranges  0x00000a68       0x30 contiki-avr-atmega256rfr2.a(simple-udp.o)
 .debug_ranges  0x00000a98       0xe0 contiki-avr-atmega256rfr2.a(tcpip.o)
 .debug_ranges  0x00000b78       0x18 contiki-avr-atmega256rfr2.a(uip-debug.o)
 .debug_ranges  0x00000b90       0x40 contiki-avr-atmega256rfr2.a(uip-packetqueue)
 .debug_ranges  0x00000bd0       0x10 contiki-avr-atmega256rfr2.a(uip-split.o)
 .debug_ranges  0x00000be0       0x18 contiki-avr-atmega256rfr2.a(uip-udp-packet.)
 .debug_ranges  0x00000bf8       0x50 contiki-avr-atmega256rfr2.a(rpl.o)
 .debug_ranges  0x00000c48      0x168 contiki-avr-atmega256rfr2.a(rpl-dag.o)
 .debug_ranges  0x00000db0       0x38 contiki-avr-atmega256rfr2.a(rpl-ext-header.)
 .debug_ranges  0x00000de8       0x90 contiki-avr-atmega256rfr2.a(rpl-icmp6.o)
 .debug_ranges  0x00000e78       0x38 contiki-avr-atmega256rfr2.a(rpl-mrhof.o)
 .debug_ranges  0x00000eb0       0xc0 contiki-avr-atmega256rfr2.a(rpl-timers.o)
 .debug_ranges  0x00000f70       0x38 contiki-avr-atmega256rfr2.a(nullmac.o)
 .debug_ranges  0x00000fa8       0x48 contiki-avr-atmega256rfr2.a(nullrdc.o)
 .debug_ranges  0x00000ff0       0x20 contiki-avr-atmega256rfr2.a(linkaddr.o)
 .debug_ranges  0x00001010       0x98 contiki-avr-atmega256rfr2.a(nbr-table.o)
 .debug_ranges  0x000010a8       0x10 contiki-avr-atmega256rfr2.a(netstack.o)
 .debug_ranges  0x000010b8       0xd8 contiki-avr-atmega256rfr2.a(packetbuf.o)
 .debug_ranges  0x00001190       0x80 contiki-avr-atmega256rfr2.a(queuebuf.o)
 .debug_ranges  0x00001210       0x30 contiki-avr-atmega256rfr2.a(nullsec.o)
 .debug_ranges  0x00001240       0x20 contiki-avr-atmega256rfr2.a(rtimer-arch.o)
 .debug_ranges  0x00001260       0x38 contiki-avr-atmega256rfr2.a(stimer.o)
 .debug_ranges  0x00001298       0x80 contiki-avr-atmega256rfr2.a(sicslowpan.o)
 .debug_ranges  0x00001318       0x28 contiki-avr-atmega256rfr2.a(framer-802154.o)
 .debug_ranges  0x00001340       0x10 contiki-avr-atmega256rfr2.a(framer.o)
 .debug_ranges  0x00001350       0x10 contiki-avr-atmega256rfr2.a(mac.o)
 .debug_ranges  0x00001360       0x28 contiki-avr-atmega256rfr2.a(frame802154.o)

.debug_macro
 *(.debug_macro)
OUTPUT(unicast-receiver.avr-atmega256rfr2 elf32-avr)
LOAD linker stubs

.bootloader     0x0001f800        0x0
