Archive member included because of file (symbol)

contiki-avr-atmega256rfr2.a(servreg-hack.o)
                              example-servreg-client.co (servreg_hack_init)
contiki-avr-atmega256rfr2.a(contiki-main.o)
                              /usr/local/bin/../lib/gcc/avr/4.8.1/../../../../avr/lib/avr6/crtm256rfr2.o (main)
contiki-avr-atmega256rfr2.a(params.o)
                              contiki-avr-atmega256rfr2.a(contiki-main.o) (params_get_channel)
contiki-avr-atmega256rfr2.a(ssd1306.o)
                              contiki-avr-atmega256rfr2.a(contiki-main.o) (ssd1306_init)
contiki-avr-atmega256rfr2.a(clock.o)
                              contiki-avr-atmega256rfr2.a(contiki-main.o) (clock_init)
contiki-avr-atmega256rfr2.a(rs232.o)
                              contiki-avr-atmega256rfr2.a(contiki-main.o) (rs232_init)
contiki-avr-atmega256rfr2.a(watchdog.o)
                              contiki-avr-atmega256rfr2.a(contiki-main.o) (watchdog_periodic)
contiki-avr-atmega256rfr2.a(random.o)
                              contiki-avr-atmega256rfr2.a(contiki-main.o) (random_init)
contiki-avr-atmega256rfr2.a(rf230bb.o)
                              contiki-avr-atmega256rfr2.a(clock.o) (RF230_receive_on)
contiki-avr-atmega256rfr2.a(halbb.o)
                              contiki-avr-atmega256rfr2.a(rf230bb.o) (hal_init)
contiki-avr-atmega256rfr2.a(autostart.o)
                              contiki-avr-atmega256rfr2.a(contiki-main.o) (autostart_start)
contiki-avr-atmega256rfr2.a(ctimer.o)
                              contiki-avr-atmega256rfr2.a(contiki-main.o) (ctimer_init)
contiki-avr-atmega256rfr2.a(energest.o)
                              contiki-avr-atmega256rfr2.a(rf230bb.o) (energest_current_time)
contiki-avr-atmega256rfr2.a(etimer.o)
                              contiki-avr-atmega256rfr2.a(clock.o) (etimer_request_poll)
contiki-avr-atmega256rfr2.a(process.o)
                              contiki-avr-atmega256rfr2.a(servreg-hack.o) (process_current)
contiki-avr-atmega256rfr2.a(rtimer.o)
                              contiki-avr-atmega256rfr2.a(contiki-main.o) (rtimer_init)
contiki-avr-atmega256rfr2.a(timer.o)
                              contiki-avr-atmega256rfr2.a(servreg-hack.o) (timer_set)
contiki-avr-atmega256rfr2.a(list.o)
                              contiki-avr-atmega256rfr2.a(servreg-hack.o) (list_init)
contiki-avr-atmega256rfr2.a(memb.o)
                              contiki-avr-atmega256rfr2.a(servreg-hack.o) (memb_init)
contiki-avr-atmega256rfr2.a(print-stats.o)
                              contiki-avr-atmega256rfr2.a(contiki-main.o) (print_stats)
contiki-avr-atmega256rfr2.a(uip6.o)
                              contiki-avr-atmega256rfr2.a(servreg-hack.o) (uip_appdata)
contiki-avr-atmega256rfr2.a(uip-ds6.o)
                              contiki-avr-atmega256rfr2.a(uip6.o) (uip_ds6_is_addr_onlink)
contiki-avr-atmega256rfr2.a(uip-ds6-nbr.o)
                              contiki-avr-atmega256rfr2.a(contiki-main.o) (ds6_neighbors)
contiki-avr-atmega256rfr2.a(uip-ds6-route.o)
                              contiki-avr-atmega256rfr2.a(uip-ds6.o) (uip_ds6_route_init)
contiki-avr-atmega256rfr2.a(uip-icmp6.o)
                              contiki-avr-atmega256rfr2.a(uip6.o) (uip_icmp6_input)
contiki-avr-atmega256rfr2.a(uip-nd6.o)
                              contiki-avr-atmega256rfr2.a(uip-ds6-nbr.o) (uip_nd6_ns_output)
contiki-avr-atmega256rfr2.a(tcpip.o)
                              contiki-avr-atmega256rfr2.a(servreg-hack.o) (udp_new)
contiki-avr-atmega256rfr2.a(uip-debug.o)
                              example-servreg-client.co (uip_debug_ipaddr_print)
contiki-avr-atmega256rfr2.a(uip-packetqueue)
                              contiki-avr-atmega256rfr2.a(uip-ds6-nbr.o) (uip_packetqueue_new)
contiki-avr-atmega256rfr2.a(uip-split.o)
                              contiki-avr-atmega256rfr2.a(tcpip.o) (uip_split_output)
contiki-avr-atmega256rfr2.a(uip-udp-packet.)
                              contiki-avr-atmega256rfr2.a(servreg-hack.o) (uip_udp_packet_send)
contiki-avr-atmega256rfr2.a(rpl.o)
                              contiki-avr-atmega256rfr2.a(uip-ds6-nbr.o) (rpl_link_neighbor_callback)
contiki-avr-atmega256rfr2.a(rpl-dag.o)
                              contiki-avr-atmega256rfr2.a(rpl.o) (rpl_dag_init)
contiki-avr-atmega256rfr2.a(rpl-ext-header.)
                              contiki-avr-atmega256rfr2.a(uip6.o) (rpl_verify_header)
contiki-avr-atmega256rfr2.a(rpl-icmp6.o)
                              contiki-avr-atmega256rfr2.a(rpl.o) (dao_output_target)
contiki-avr-atmega256rfr2.a(rpl-mrhof.o)
                              contiki-avr-atmega256rfr2.a(rpl.o) (rpl_mrhof)
contiki-avr-atmega256rfr2.a(rpl-timers.o)
                              contiki-avr-atmega256rfr2.a(rpl.o) (rpl_reset_periodic_timer)
contiki-avr-atmega256rfr2.a(nullmac.o)
                              contiki-avr-atmega256rfr2.a(contiki-main.o) (nullmac_driver)
contiki-avr-atmega256rfr2.a(nullrdc.o)
                              contiki-avr-atmega256rfr2.a(contiki-main.o) (nullrdc_driver)
contiki-avr-atmega256rfr2.a(linkaddr.o)
                              contiki-avr-atmega256rfr2.a(uip-ds6-nbr.o) (linkaddr_cmp)
contiki-avr-atmega256rfr2.a(nbr-table.o)
                              contiki-avr-atmega256rfr2.a(uip-ds6-nbr.o) (nbr_table_register)
contiki-avr-atmega256rfr2.a(netstack.o)
                              contiki-avr-atmega256rfr2.a(contiki-main.o) (netstack_init)
contiki-avr-atmega256rfr2.a(packetbuf.o)
                              contiki-avr-atmega256rfr2.a(rf230bb.o) (packetbuf_set_datalen)
contiki-avr-atmega256rfr2.a(queuebuf.o)
                              contiki-avr-atmega256rfr2.a(contiki-main.o) (queuebuf_init)
contiki-avr-atmega256rfr2.a(nullsec.o)
                              contiki-avr-atmega256rfr2.a(nullmac.o) (nullsec_driver)
contiki-avr-atmega256rfr2.a(font.o)
                              contiki-avr-atmega256rfr2.a(ssd1306.o) (font_table)
contiki-avr-atmega256rfr2.a(rtimer-arch.o)
                              contiki-avr-atmega256rfr2.a(rtimer.o) (rtimer_arch_init)
contiki-avr-atmega256rfr2.a(stimer.o)
                              contiki-avr-atmega256rfr2.a(uip-ds6.o) (stimer_set)
contiki-avr-atmega256rfr2.a(sicslowpan.o)
                              contiki-avr-atmega256rfr2.a(netstack.o) (sicslowpan_driver)
contiki-avr-atmega256rfr2.a(framer-802154.o)
                              contiki-avr-atmega256rfr2.a(nullrdc.o) (framer_802154)
contiki-avr-atmega256rfr2.a(framer.o)
                              contiki-avr-atmega256rfr2.a(framer-802154.o) (framer_canonical_create_and_secure)
contiki-avr-atmega256rfr2.a(mac.o)
                              contiki-avr-atmega256rfr2.a(nullrdc.o) (mac_call_sent_callback)
contiki-avr-atmega256rfr2.a(frame802154.o)
                              contiki-avr-atmega256rfr2.a(framer-802154.o) (frame802154_hdrlen)
/usr/local/bin/../lib/gcc/avr/4.8.1/avr6/libgcc.a(_udivmodhi4.o)
                              contiki-avr-atmega256rfr2.a(servreg-hack.o) (__udivmodhi4)
/usr/local/bin/../lib/gcc/avr/4.8.1/avr6/libgcc.a(_divmodhi4.o)
                              contiki-avr-atmega256rfr2.a(nbr-table.o) (__divmodhi4)
/usr/local/bin/../lib/gcc/avr/4.8.1/avr6/libgcc.a(_udivmodsi4.o)
                              contiki-avr-atmega256rfr2.a(contiki-main.o) (__udivmodsi4)
/usr/local/bin/../lib/gcc/avr/4.8.1/avr6/libgcc.a(_exit.o)
                              /usr/local/bin/../lib/gcc/avr/4.8.1/../../../../avr/lib/avr6/crtm256rfr2.o (exit)
/usr/local/bin/../lib/gcc/avr/4.8.1/avr6/libgcc.a(_tablejump.o)
                              contiki-avr-atmega256rfr2.a(uip6.o) (__tablejump2__)
/usr/local/bin/../lib/gcc/avr/4.8.1/avr6/libgcc.a(_copy_data.o)
                              example-servreg-client.co (__do_copy_data)
/usr/local/bin/../lib/gcc/avr/4.8.1/avr6/libgcc.a(_clear_bss.o)
                              example-servreg-client.co (__do_clear_bss)
/usr/local/bin/../lib/gcc/avr/4.8.1/avr6/libgcc.a(_bswapsi2.o)
                              contiki-avr-atmega256rfr2.a(uip6.o) (__bswapsi2)
/usr/local/bin/../lib/gcc/avr/4.8.1/avr6/libgcc.a(_umulhisi3.o)
                              contiki-avr-atmega256rfr2.a(rpl.o) (__umulhisi3)
/usr/local/bin/../lib/gcc/avr/4.8.1/../../../../avr/lib/avr6/libc.a(rand.o)
                              contiki-avr-atmega256rfr2.a(random.o) (rand)
/usr/local/bin/../lib/gcc/avr/4.8.1/../../../../avr/lib/avr6/libc.a(memcmp.o)
                              contiki-avr-atmega256rfr2.a(uip6.o) (memcmp)
/usr/local/bin/../lib/gcc/avr/4.8.1/../../../../avr/lib/avr6/libc.a(memcpy.o)
                              contiki-avr-atmega256rfr2.a(rf230bb.o) (memcpy)
/usr/local/bin/../lib/gcc/avr/4.8.1/../../../../avr/lib/avr6/libc.a(memmove.o)
                              contiki-avr-atmega256rfr2.a(uip6.o) (memmove)
/usr/local/bin/../lib/gcc/avr/4.8.1/../../../../avr/lib/avr6/libc.a(memset.o)
                              contiki-avr-atmega256rfr2.a(memb.o) (memset)
/usr/local/bin/../lib/gcc/avr/4.8.1/../../../../avr/lib/avr6/libc.a(iob.o)
                              contiki-avr-atmega256rfr2.a(rs232.o) (__iob)
/usr/local/bin/../lib/gcc/avr/4.8.1/../../../../avr/lib/avr6/libc.a(printf.o)
                              example-servreg-client.co (printf)
/usr/local/bin/../lib/gcc/avr/4.8.1/../../../../avr/lib/avr6/libc.a(printf_p.o)
                              contiki-avr-atmega256rfr2.a(contiki-main.o) (printf_P)
/usr/local/bin/../lib/gcc/avr/4.8.1/../../../../avr/lib/avr6/libc.a(putchar.o)
                              example-servreg-client.co (putchar)
/usr/local/bin/../lib/gcc/avr/4.8.1/../../../../avr/lib/avr6/libc.a(puts.o)
                              contiki-avr-atmega256rfr2.a(servreg-hack.o) (puts)
/usr/local/bin/../lib/gcc/avr/4.8.1/../../../../avr/lib/avr6/libc.a(vfprintf_std.o)
                              /usr/local/bin/../lib/gcc/avr/4.8.1/../../../../avr/lib/avr6/libc.a(printf.o) (vfprintf)
/usr/local/bin/../lib/gcc/avr/4.8.1/../../../../avr/lib/avr6/libc.a(eerd_block_atmega256rfr2.o)
                              contiki-avr-atmega256rfr2.a(params.o) (__eerd_block_EEPROM_SUFFIX)
/usr/local/bin/../lib/gcc/avr/4.8.1/../../../../avr/lib/avr6/libc.a(eerd_byte_atmega256rfr2.o)
                              contiki-avr-atmega256rfr2.a(params.o) (__eerd_byte_EEPROM_SUFFIX)
/usr/local/bin/../lib/gcc/avr/4.8.1/../../../../avr/lib/avr6/libc.a(eerd_word_atmega256rfr2.o)
                              contiki-avr-atmega256rfr2.a(params.o) (__eerd_word_EEPROM_SUFFIX)
/usr/local/bin/../lib/gcc/avr/4.8.1/../../../../avr/lib/avr6/libc.a(eewr_block_atmega256rfr2.o)
                              contiki-avr-atmega256rfr2.a(params.o) (__eewr_block_EEPROM_SUFFIX)
/usr/local/bin/../lib/gcc/avr/4.8.1/../../../../avr/lib/avr6/libc.a(eewr_byte_atmega256rfr2.o)
                              contiki-avr-atmega256rfr2.a(params.o) (__eewr_byte_EEPROM_SUFFIX)
/usr/local/bin/../lib/gcc/avr/4.8.1/../../../../avr/lib/avr6/libc.a(eewr_word_atmega256rfr2.o)
                              contiki-avr-atmega256rfr2.a(params.o) (__eewr_word_EEPROM_SUFFIX)
/usr/local/bin/../lib/gcc/avr/4.8.1/../../../../avr/lib/avr6/libc.a(strnlen_P.o)
                              /usr/local/bin/../lib/gcc/avr/4.8.1/../../../../avr/lib/avr6/libc.a(vfprintf_std.o) (strnlen_P)
/usr/local/bin/../lib/gcc/avr/4.8.1/../../../../avr/lib/avr6/libc.a(strnlen.o)
                              /usr/local/bin/../lib/gcc/avr/4.8.1/../../../../avr/lib/avr6/libc.a(vfprintf_std.o) (strnlen)
/usr/local/bin/../lib/gcc/avr/4.8.1/../../../../avr/lib/avr6/libc.a(fputc.o)
                              /usr/local/bin/../lib/gcc/avr/4.8.1/../../../../avr/lib/avr6/libc.a(putchar.o) (fputc)
/usr/local/bin/../lib/gcc/avr/4.8.1/../../../../avr/lib/avr6/libc.a(ultoa_invert.o)
                              /usr/local/bin/../lib/gcc/avr/4.8.1/../../../../avr/lib/avr6/libc.a(vfprintf_std.o) (__ultoa_invert)
/usr/local/bin/../lib/gcc/avr/4.8.1/avr6/libgcc.a(_divmodsi4.o)
                              /usr/local/bin/../lib/gcc/avr/4.8.1/../../../../avr/lib/avr6/libc.a(rand.o) (__divmodsi4)
/usr/local/bin/../lib/gcc/avr/4.8.1/avr6/libgcc.a(_negsi2.o)
                              /usr/local/bin/../lib/gcc/avr/4.8.1/avr6/libgcc.a(_divmodsi4.o) (__negsi2)
/usr/local/bin/../lib/gcc/avr/4.8.1/avr6/libgcc.a(_muluhisi3.o)
                              /usr/local/bin/../lib/gcc/avr/4.8.1/../../../../avr/lib/avr6/libc.a(rand.o) (__muluhisi3)
/usr/local/bin/../lib/gcc/avr/4.8.1/avr6/libgcc.a(_mulshisi3.o)
                              /usr/local/bin/../lib/gcc/avr/4.8.1/../../../../avr/lib/avr6/libc.a(rand.o) (__mulohisi3)

Allocating common symbols
Common symbol       size              file

energest_total_time
                    0x30              contiki-avr-atmega256rfr2.a(energest.o)
uip_ds6_timer_ra    0x8               contiki-avr-atmega256rfr2.a(uip-ds6.o)
rf230_last_correlation
                    0x1               contiki-avr-atmega256rfr2.a(rf230bb.o)
rf230_last_rssi     0x1               contiki-avr-atmega256rfr2.a(rf230bb.o)
uip_ds6_if          0x11b             contiki-avr-atmega256rfr2.a(uip-ds6.o)
uip_ds6_netif_addr_list_offset
                    0x1               contiki-avr-atmega256rfr2.a(uip-ds6.o)
uip_len             0x2               contiki-avr-atmega256rfr2.a(uip6.o)
RF230_receivefail   0x2               contiki-avr-atmega256rfr2.a(rf230bb.o)
energest_total_count
                    0x2               contiki-avr-atmega256rfr2.a(energest.o)
input_handler_1     0x2               contiki-avr-atmega256rfr2.a(rs232.o)
uip_ds6_addr_size   0x1               contiki-avr-atmega256rfr2.a(uip-ds6.o)
uip_sappdata        0x2               contiki-avr-atmega256rfr2.a(uip6.o)
energest_current_mode
                    0xc               contiki-avr-atmega256rfr2.a(energest.o)
packetbuf_addrs     0x20              contiki-avr-atmega256rfr2.a(packetbuf.o)
uip_acc32           0x4               contiki-avr-atmega256rfr2.a(uip6.o)
uip_ds6_prefix_list
                    0x70              contiki-avr-atmega256rfr2.a(uip-ds6.o)
frag_sender         0x8               contiki-avr-atmega256rfr2.a(sicslowpan.o)
uip_lladdr          0x8               contiki-avr-atmega256rfr2.a(uip6.o)
uip_aligned_buf     0xf0              contiki-avr-atmega256rfr2.a(uip6.o)
uip_flags           0x1               contiki-avr-atmega256rfr2.a(uip6.o)
uip_ds6_timer_periodic
                    0x8               contiki-avr-atmega256rfr2.a(uip-ds6.o)
ledtimer            0x2               contiki-avr-atmega256rfr2.a(contiki-main.o)
rf230_smallest_rssi
                    0x1               contiki-avr-atmega256rfr2.a(rf230bb.o)
uip_next_hdr        0x2               contiki-avr-atmega256rfr2.a(uip6.o)
linkaddr_node_addr  0x8               contiki-avr-atmega256rfr2.a(linkaddr.o)
default_instance    0x2               contiki-avr-atmega256rfr2.a(rpl-dag.o)
rf230_pending       0x1               contiki-avr-atmega256rfr2.a(rf230bb.o)
uip_udp_conn        0x2               contiki-avr-atmega256rfr2.a(uip6.o)
rf230_ccawait       0x1               contiki-avr-atmega256rfr2.a(rf230bb.o)
RF230_receivepackets
                    0x2               contiki-avr-atmega256rfr2.a(rf230bb.o)
packetbuf_attrs     0x34              contiki-avr-atmega256rfr2.a(packetbuf.o)
rf230_txendwait     0x1               contiki-avr-atmega256rfr2.a(rf230bb.o)
instance_table      0xb6              contiki-avr-atmega256rfr2.a(rpl-dag.o)
radioontime         0x4               contiki-avr-atmega256rfr2.a(clock.o)
uip_appdata         0x2               contiki-avr-atmega256rfr2.a(uip6.o)
uip_conn            0x2               contiki-avr-atmega256rfr2.a(uip6.o)
rxframe_tail        0x1               contiki-avr-atmega256rfr2.a(rf230bb.o)
tcpip_event         0x1               contiki-avr-atmega256rfr2.a(tcpip.o)
uip_conns           0xb0              contiki-avr-atmega256rfr2.a(uip6.o)
uip_icmp6_conns     0x4               contiki-avr-atmega256rfr2.a(uip6.o)
rxframe_head        0x1               contiki-avr-atmega256rfr2.a(rf230bb.o)
rxframe             0x186             contiki-avr-atmega256rfr2.a(rf230bb.o)
rf230_wakewait      0x1               contiki-avr-atmega256rfr2.a(rf230bb.o)
sleepseconds        0x4               contiki-avr-atmega256rfr2.a(clock.o)
seconds             0x4               contiki-avr-atmega256rfr2.a(clock.o)
input_handler_0     0x2               contiki-avr-atmega256rfr2.a(rs232.o)
RF230_sendpackets   0x2               contiki-avr-atmega256rfr2.a(rf230bb.o)
uip_listenports     0x8               contiki-avr-atmega256rfr2.a(uip6.o)
RF230_sendfail      0x2               contiki-avr-atmega256rfr2.a(rf230bb.o)
energest_current_time
                    0x18              contiki-avr-atmega256rfr2.a(energest.o)
clocktime           0x4               contiki-avr-atmega256rfr2.a(contiki-main.o)
RF230_receive_on    0x1               contiki-avr-atmega256rfr2.a(rf230bb.o)
__iob               0x6               /usr/local/bin/../lib/gcc/avr/4.8.1/../../../../avr/lib/avr6/libc.a(iob.o)
tcpip_icmp6_event   0x1               contiki-avr-atmega256rfr2.a(tcpip.o)
uip_slen            0x2               contiki-avr-atmega256rfr2.a(uip6.o)
uip_udp_conns       0xfa              contiki-avr-atmega256rfr2.a(uip6.o)

Discarded input sections

 .data          0x00000000        0x0 /usr/local/bin/../lib/gcc/avr/4.8.1/../../../../avr/lib/avr6/crtm256rfr2.o
 .bss           0x00000000        0x0 /usr/local/bin/../lib/gcc/avr/4.8.1/../../../../avr/lib/avr6/crtm256rfr2.o
 .text          0x00000000        0x0 example-servreg-client.co
 .data          0x00000000        0x0 example-servreg-client.co
 .bss           0x00000000        0x0 example-servreg-client.co
 .text          0x00000000        0x0 contiki-avr-atmega256rfr2.a(servreg-hack.o)
 .data          0x00000000        0x0 contiki-avr-atmega256rfr2.a(servreg-hack.o)
 .bss           0x00000000        0x0 contiki-avr-atmega256rfr2.a(servreg-hack.o)
 .text.servreg_hack_register
                0x00000000       0xb8 contiki-avr-atmega256rfr2.a(servreg-hack.o)
 .text.servreg_hack_lookup
                0x00000000       0x2e contiki-avr-atmega256rfr2.a(servreg-hack.o)
 .text          0x00000000        0x0 contiki-avr-atmega256rfr2.a(contiki-main.o)
 .data          0x00000000        0x0 contiki-avr-atmega256rfr2.a(contiki-main.o)
 .bss           0x00000000        0x0 contiki-avr-atmega256rfr2.a(contiki-main.o)
 .text.log_message
                0x00000000       0x22 contiki-avr-atmega256rfr2.a(contiki-main.o)
 .progmem.data.__c.4744
                0x00000000        0x6 contiki-avr-atmega256rfr2.a(contiki-main.o)
 .text          0x00000000        0x0 contiki-avr-atmega256rfr2.a(params.o)
 .data          0x00000000        0x0 contiki-avr-atmega256rfr2.a(params.o)
 .bss           0x00000000        0x0 contiki-avr-atmega256rfr2.a(params.o)
 .text          0x00000000        0x0 contiki-avr-atmega256rfr2.a(ssd1306.o)
 .data          0x00000000        0x0 contiki-avr-atmega256rfr2.a(ssd1306.o)
 .bss           0x00000000        0x0 contiki-avr-atmega256rfr2.a(ssd1306.o)
 .text.ssd1306_sel_data
                0x00000000        0x6 contiki-avr-atmega256rfr2.a(ssd1306.o)
 .text.ssd1306_write_data
                0x00000000       0x2c contiki-avr-atmega256rfr2.a(ssd1306.o)
 .text.ssd1306_read_data
                0x00000000        0x4 contiki-avr-atmega256rfr2.a(ssd1306.o)
 .text.ssd1306_get_status
                0x00000000        0x4 contiki-avr-atmega256rfr2.a(ssd1306.o)
 .text.ssd1306_sleep_enable
                0x00000000        0x6 contiki-avr-atmega256rfr2.a(ssd1306.o)
 .text.ssd1306_sleep_disable
                0x00000000        0x6 contiki-avr-atmega256rfr2.a(ssd1306.o)
 .text.ssd1306_set_page_address
                0x00000000        0x8 contiki-avr-atmega256rfr2.a(ssd1306.o)
 .text.ssd1306_set_column_address
                0x00000000       0x1a contiki-avr-atmega256rfr2.a(ssd1306.o)
 .text.ssd1306_set_display_start_line_address
                0x00000000        0x8 contiki-avr-atmega256rfr2.a(ssd1306.o)
 .text.ssd1306_display_off
                0x00000000        0x6 contiki-avr-atmega256rfr2.a(ssd1306.o)
 .text.ssd1306_display_invert_enable
                0x00000000        0x6 contiki-avr-atmega256rfr2.a(ssd1306.o)
 .text.ssd1306_clear
                0x00000000       0x2c contiki-avr-atmega256rfr2.a(ssd1306.o)
 .text.ssd1306_write_text
                0x00000000       0x5a contiki-avr-atmega256rfr2.a(ssd1306.o)
 .text          0x00000000        0x0 contiki-avr-atmega256rfr2.a(clock.o)
 .data          0x00000000        0x0 contiki-avr-atmega256rfr2.a(clock.o)
 .bss           0x00000000        0x0 contiki-avr-atmega256rfr2.a(clock.o)
 .text.clock_set_seconds
                0x00000000       0x12 contiki-avr-atmega256rfr2.a(clock.o)
 .text.clock_wait
                0x00000000       0x20 contiki-avr-atmega256rfr2.a(clock.o)
 .text.clock_delay_msec
                0x00000000       0x20 contiki-avr-atmega256rfr2.a(clock.o)
 .text.clock_adjust_ticks
                0x00000000       0xbe contiki-avr-atmega256rfr2.a(clock.o)
 .text          0x00000000        0x0 contiki-avr-atmega256rfr2.a(rs232.o)
 .data          0x00000000        0x0 contiki-avr-atmega256rfr2.a(rs232.o)
 .bss           0x00000000        0x0 contiki-avr-atmega256rfr2.a(rs232.o)
 .text.rs232_set_input
                0x00000000       0x1c contiki-avr-atmega256rfr2.a(rs232.o)
 .text.rs232_print
                0x00000000       0x32 contiki-avr-atmega256rfr2.a(rs232.o)
 .text.slip_arch_writeb
                0x00000000        0x8 contiki-avr-atmega256rfr2.a(rs232.o)
 .text          0x00000000        0x0 contiki-avr-atmega256rfr2.a(watchdog.o)
 .data          0x00000000        0x0 contiki-avr-atmega256rfr2.a(watchdog.o)
 .bss           0x00000000        0x0 contiki-avr-atmega256rfr2.a(watchdog.o)
 .text.watchdog_init
                0x00000000       0x18 contiki-avr-atmega256rfr2.a(watchdog.o)
 .text.watchdog_start
                0x00000000       0x18 contiki-avr-atmega256rfr2.a(watchdog.o)
 .text.watchdog_stop
                0x00000000       0x12 contiki-avr-atmega256rfr2.a(watchdog.o)
 .text.watchdog_reboot
                0x00000000       0x1a contiki-avr-atmega256rfr2.a(watchdog.o)
 .text          0x00000000        0x0 contiki-avr-atmega256rfr2.a(random.o)
 .data          0x00000000        0x0 contiki-avr-atmega256rfr2.a(random.o)
 .bss           0x00000000        0x0 contiki-avr-atmega256rfr2.a(random.o)
 .text          0x00000000        0x0 contiki-avr-atmega256rfr2.a(rf230bb.o)
 .data          0x00000000        0x0 contiki-avr-atmega256rfr2.a(rf230bb.o)
 .bss           0x00000000        0x0 contiki-avr-atmega256rfr2.a(rf230bb.o)
 .text.rf230_set_promiscuous_mode
                0x00000000        0x6 contiki-avr-atmega256rfr2.a(rf230bb.o)
 .text.rf230_is_ready_to_send
                0x00000000       0x14 contiki-avr-atmega256rfr2.a(rf230bb.o)
 .text.rf230_setpendingbit
                0x00000000        0xe contiki-avr-atmega256rfr2.a(rf230bb.o)
 .text.rf230_listen_channel
                0x00000000        0xa contiki-avr-atmega256rfr2.a(rf230bb.o)
 .text.rf230_get_raw_rssi
                0x00000000       0x48 contiki-avr-atmega256rfr2.a(rf230bb.o)
 .bss.is_promiscuous
                0x00000000        0x1 contiki-avr-atmega256rfr2.a(rf230bb.o)
 .text          0x00000000        0x0 contiki-avr-atmega256rfr2.a(halbb.o)
 .data          0x00000000        0x0 contiki-avr-atmega256rfr2.a(halbb.o)
 .bss           0x00000000        0x0 contiki-avr-atmega256rfr2.a(halbb.o)
 .text          0x00000000        0x0 contiki-avr-atmega256rfr2.a(autostart.o)
 .data          0x00000000        0x0 contiki-avr-atmega256rfr2.a(autostart.o)
 .bss           0x00000000        0x0 contiki-avr-atmega256rfr2.a(autostart.o)
 .text.autostart_exit
                0x00000000       0x1a contiki-avr-atmega256rfr2.a(autostart.o)
 .text          0x00000000        0x0 contiki-avr-atmega256rfr2.a(ctimer.o)
 .data          0x00000000        0x0 contiki-avr-atmega256rfr2.a(ctimer.o)
 .bss           0x00000000        0x0 contiki-avr-atmega256rfr2.a(ctimer.o)
 .text.ctimer_restart
                0x00000000       0x48 contiki-avr-atmega256rfr2.a(ctimer.o)
 .text.ctimer_expired
                0x00000000       0x44 contiki-avr-atmega256rfr2.a(ctimer.o)
 .text          0x00000000        0x0 contiki-avr-atmega256rfr2.a(energest.o)
 .data          0x00000000        0x0 contiki-avr-atmega256rfr2.a(energest.o)
 .bss           0x00000000        0x0 contiki-avr-atmega256rfr2.a(energest.o)
 .text.energest_init
                0x00000000       0x2c contiki-avr-atmega256rfr2.a(energest.o)
 .text.energest_type_time
                0x00000000       0x6e contiki-avr-atmega256rfr2.a(energest.o)
 .text.energest_leveldevice_leveltime
                0x00000000        0x8 contiki-avr-atmega256rfr2.a(energest.o)
 .text.energest_type_set
                0x00000000       0x18 contiki-avr-atmega256rfr2.a(energest.o)
 .text.energest_flush
                0x00000000       0x5a contiki-avr-atmega256rfr2.a(energest.o)
 .text          0x00000000        0x0 contiki-avr-atmega256rfr2.a(etimer.o)
 .data          0x00000000        0x0 contiki-avr-atmega256rfr2.a(etimer.o)
 .bss           0x00000000        0x0 contiki-avr-atmega256rfr2.a(etimer.o)
 .text.etimer_adjust
                0x00000000       0x12 contiki-avr-atmega256rfr2.a(etimer.o)
 .text.etimer_start_time
                0x00000000        0x8 contiki-avr-atmega256rfr2.a(etimer.o)
 .text.etimer_next_expiration_time
                0x00000000       0x1c contiki-avr-atmega256rfr2.a(etimer.o)
 .text          0x00000000        0x0 contiki-avr-atmega256rfr2.a(process.o)
 .data          0x00000000        0x0 contiki-avr-atmega256rfr2.a(process.o)
 .bss           0x00000000        0x0 contiki-avr-atmega256rfr2.a(process.o)
 .text.process_exit
                0x00000000        0xc contiki-avr-atmega256rfr2.a(process.o)
 .text.process_nevents
                0x00000000       0x10 contiki-avr-atmega256rfr2.a(process.o)
 .text.process_is_running
                0x00000000       0x14 contiki-avr-atmega256rfr2.a(process.o)
 .text          0x00000000        0x0 contiki-avr-atmega256rfr2.a(rtimer.o)
 .data          0x00000000        0x0 contiki-avr-atmega256rfr2.a(rtimer.o)
 .bss           0x00000000        0x0 contiki-avr-atmega256rfr2.a(rtimer.o)
 .text.rtimer_set
                0x00000000       0x36 contiki-avr-atmega256rfr2.a(rtimer.o)
 .text.rtimer_reset
                0x00000000       0x22 contiki-avr-atmega256rfr2.a(rtimer.o)
 .text          0x00000000        0x0 contiki-avr-atmega256rfr2.a(timer.o)
 .data          0x00000000        0x0 contiki-avr-atmega256rfr2.a(timer.o)
 .bss           0x00000000        0x0 contiki-avr-atmega256rfr2.a(timer.o)
 .text.timer_remaining
                0x00000000       0x24 contiki-avr-atmega256rfr2.a(timer.o)
 .text          0x00000000        0x0 contiki-avr-atmega256rfr2.a(list.o)
 .data          0x00000000        0x0 contiki-avr-atmega256rfr2.a(list.o)
 .bss           0x00000000        0x0 contiki-avr-atmega256rfr2.a(list.o)
 .text.list_copy
                0x00000000        0xe contiki-avr-atmega256rfr2.a(list.o)
 .text.list_chop
                0x00000000       0x3c contiki-avr-atmega256rfr2.a(list.o)
 .text.list_pop
                0x00000000       0x18 contiki-avr-atmega256rfr2.a(list.o)
 .text.list_insert
                0x00000000       0x1c contiki-avr-atmega256rfr2.a(list.o)
 .text          0x00000000        0x0 contiki-avr-atmega256rfr2.a(memb.o)
 .data          0x00000000        0x0 contiki-avr-atmega256rfr2.a(memb.o)
 .bss           0x00000000        0x0 contiki-avr-atmega256rfr2.a(memb.o)
 .text          0x00000000        0x0 contiki-avr-atmega256rfr2.a(print-stats.o)
 .data          0x00000000        0x0 contiki-avr-atmega256rfr2.a(print-stats.o)
 .bss           0x00000000        0x0 contiki-avr-atmega256rfr2.a(print-stats.o)
 .text          0x00000000        0x0 contiki-avr-atmega256rfr2.a(uip6.o)
 .data          0x00000000        0x0 contiki-avr-atmega256rfr2.a(uip6.o)
 .bss           0x00000000        0x0 contiki-avr-atmega256rfr2.a(uip6.o)
 .text.uip_chksum
                0x00000000       0x14 contiki-avr-atmega256rfr2.a(uip6.o)
 .text.uip_connect
                0x00000000      0x110 contiki-avr-atmega256rfr2.a(uip6.o)
 .text.uip_listen
                0x00000000       0x32 contiki-avr-atmega256rfr2.a(uip6.o)
 .text.uip_htons
                0x00000000        0x8 contiki-avr-atmega256rfr2.a(uip6.o)
 .text.uip_send
                0x00000000       0x52 contiki-avr-atmega256rfr2.a(uip6.o)
 .text          0x00000000        0x0 contiki-avr-atmega256rfr2.a(uip-ds6.o)
 .data          0x00000000        0x0 contiki-avr-atmega256rfr2.a(uip-ds6.o)
 .bss           0x00000000        0x0 contiki-avr-atmega256rfr2.a(uip-ds6.o)
 .text.uip_ds6_prefix_rm
                0x00000000        0xa contiki-avr-atmega256rfr2.a(uip-ds6.o)
 .text.uip_ds6_prefix_lookup
                0x00000000       0x3a contiki-avr-atmega256rfr2.a(uip-ds6.o)
 .text.uip_ds6_get_global
                0x00000000       0x5a contiki-avr-atmega256rfr2.a(uip-ds6.o)
 .text.uip_ds6_aaddr_add
                0x00000000       0x64 contiki-avr-atmega256rfr2.a(uip-ds6.o)
 .text.uip_ds6_aaddr_rm
                0x00000000        0xa contiki-avr-atmega256rfr2.a(uip-ds6.o)
 .text.uip_ds6_aaddr_lookup
                0x00000000       0x3a contiki-avr-atmega256rfr2.a(uip-ds6.o)
 .bss.locaaddr  0x00000000        0x2 contiki-avr-atmega256rfr2.a(uip-ds6.o)
 .text          0x00000000        0x0 contiki-avr-atmega256rfr2.a(uip-ds6-nbr.o)
 .data          0x00000000        0x0 contiki-avr-atmega256rfr2.a(uip-ds6-nbr.o)
 .bss           0x00000000        0x0 contiki-avr-atmega256rfr2.a(uip-ds6-nbr.o)
 .text.uip_ds6_nbr_get_ipaddr
                0x00000000        0x2 contiki-avr-atmega256rfr2.a(uip-ds6-nbr.o)
 .text.uip_ds6_nbr_num
                0x00000000       0x32 contiki-avr-atmega256rfr2.a(uip-ds6-nbr.o)
 .text.uip_ds6_get_least_lifetime_neighbor
                0x00000000       0x82 contiki-avr-atmega256rfr2.a(uip-ds6-nbr.o)
 .text          0x00000000        0x0 contiki-avr-atmega256rfr2.a(uip-ds6-route.o)
 .data          0x00000000        0x0 contiki-avr-atmega256rfr2.a(uip-ds6-route.o)
 .bss           0x00000000        0x0 contiki-avr-atmega256rfr2.a(uip-ds6-route.o)
 .text.uip_ds6_notification_add
                0x00000000       0x1c contiki-avr-atmega256rfr2.a(uip-ds6-route.o)
 .text.uip_ds6_notification_rm
                0x00000000        0xa contiki-avr-atmega256rfr2.a(uip-ds6-route.o)
 .text.uip_ds6_route_num_routes
                0x00000000        0xa contiki-avr-atmega256rfr2.a(uip-ds6-route.o)
 .text.uip_ds6_route_rm_by_nexthop
                0x00000000       0x12 contiki-avr-atmega256rfr2.a(uip-ds6-route.o)
 .text          0x00000000        0x0 contiki-avr-atmega256rfr2.a(uip-icmp6.o)
 .data          0x00000000        0x0 contiki-avr-atmega256rfr2.a(uip-icmp6.o)
 .bss           0x00000000        0x0 contiki-avr-atmega256rfr2.a(uip-icmp6.o)
 .text.uip_icmp6_echo_reply_callback_add
                0x00000000       0x1c contiki-avr-atmega256rfr2.a(uip-icmp6.o)
 .text.uip_icmp6_echo_reply_callback_rm
                0x00000000        0xa contiki-avr-atmega256rfr2.a(uip-icmp6.o)
 .text          0x00000000        0x0 contiki-avr-atmega256rfr2.a(uip-nd6.o)
 .data          0x00000000        0x0 contiki-avr-atmega256rfr2.a(uip-nd6.o)
 .bss           0x00000000        0x0 contiki-avr-atmega256rfr2.a(uip-nd6.o)
 .text          0x00000000        0x0 contiki-avr-atmega256rfr2.a(tcpip.o)
 .data          0x00000000        0x0 contiki-avr-atmega256rfr2.a(tcpip.o)
 .bss           0x00000000        0x0 contiki-avr-atmega256rfr2.a(tcpip.o)
 .text.tcp_unlisten
                0x00000000       0x3e contiki-avr-atmega256rfr2.a(tcpip.o)
 .text.tcp_listen
                0x00000000       0x3a contiki-avr-atmega256rfr2.a(tcpip.o)
 .text.tcp_attach
                0x00000000       0x14 contiki-avr-atmega256rfr2.a(tcpip.o)
 .text.udp_attach
                0x00000000       0x14 contiki-avr-atmega256rfr2.a(tcpip.o)
 .text.icmp6_new
                0x00000000       0x2c contiki-avr-atmega256rfr2.a(tcpip.o)
 .text.tcpip_poll_udp
                0x00000000        0xc contiki-avr-atmega256rfr2.a(tcpip.o)
 .text.tcpip_poll_tcp
                0x00000000        0xc contiki-avr-atmega256rfr2.a(tcpip.o)
 .text.tcp_connect
                0x00000000       0x36 contiki-avr-atmega256rfr2.a(tcpip.o)
 .bss.i.4417    0x00000000        0x1 contiki-avr-atmega256rfr2.a(tcpip.o)
 .bss.i.4409    0x00000000        0x1 contiki-avr-atmega256rfr2.a(tcpip.o)
 .text          0x00000000        0x0 contiki-avr-atmega256rfr2.a(uip-debug.o)
 .data          0x00000000        0x0 contiki-avr-atmega256rfr2.a(uip-debug.o)
 .bss           0x00000000        0x0 contiki-avr-atmega256rfr2.a(uip-debug.o)
 .text.uip_debug_lladdr_print
                0x00000000       0x64 contiki-avr-atmega256rfr2.a(uip-debug.o)
 .progmem.data.__c.2446
                0x00000000        0x5 contiki-avr-atmega256rfr2.a(uip-debug.o)
 .progmem.data.__c.2444
                0x00000000        0x2 contiki-avr-atmega256rfr2.a(uip-debug.o)
 .text          0x00000000        0x0 contiki-avr-atmega256rfr2.a(uip-packetqueue)
 .data          0x00000000        0x0 contiki-avr-atmega256rfr2.a(uip-packetqueue)
 .bss           0x00000000        0x0 contiki-avr-atmega256rfr2.a(uip-packetqueue)
 .text          0x00000000        0x0 contiki-avr-atmega256rfr2.a(uip-split.o)
 .data          0x00000000        0x0 contiki-avr-atmega256rfr2.a(uip-split.o)
 .bss           0x00000000        0x0 contiki-avr-atmega256rfr2.a(uip-split.o)
 .text          0x00000000        0x0 contiki-avr-atmega256rfr2.a(uip-udp-packet.)
 .data          0x00000000        0x0 contiki-avr-atmega256rfr2.a(uip-udp-packet.)
 .bss           0x00000000        0x0 contiki-avr-atmega256rfr2.a(uip-udp-packet.)
 .text.uip_udp_packet_sendto
                0x00000000       0x8c contiki-avr-atmega256rfr2.a(uip-udp-packet.)
 .text          0x00000000        0x0 contiki-avr-atmega256rfr2.a(rpl.o)
 .data          0x00000000        0x0 contiki-avr-atmega256rfr2.a(rpl.o)
 .bss           0x00000000        0x0 contiki-avr-atmega256rfr2.a(rpl.o)
 .text.rpl_set_mode
                0x00000000       0x4e contiki-avr-atmega256rfr2.a(rpl.o)
 .text          0x00000000        0x0 contiki-avr-atmega256rfr2.a(rpl-dag.o)
 .data          0x00000000        0x0 contiki-avr-atmega256rfr2.a(rpl-dag.o)
 .bss           0x00000000        0x0 contiki-avr-atmega256rfr2.a(rpl-dag.o)
 .text.rpl_get_parent_rank
                0x00000000       0x1c contiki-avr-atmega256rfr2.a(rpl-dag.o)
 .text.rpl_get_parent_link_metric
                0x00000000       0x20 contiki-avr-atmega256rfr2.a(rpl-dag.o)
 .text.rpl_set_default_instance
                0x00000000        0xa contiki-avr-atmega256rfr2.a(rpl-dag.o)
 .text.rpl_set_root
                0x00000000      0x138 contiki-avr-atmega256rfr2.a(rpl-dag.o)
 .text          0x00000000        0x0 contiki-avr-atmega256rfr2.a(rpl-ext-header.)
 .data          0x00000000        0x0 contiki-avr-atmega256rfr2.a(rpl-ext-header.)
 .bss           0x00000000        0x0 contiki-avr-atmega256rfr2.a(rpl-ext-header.)
 .text.rpl_remove_header
                0x00000000       0x5e contiki-avr-atmega256rfr2.a(rpl-ext-header.)
 .text          0x00000000        0x0 contiki-avr-atmega256rfr2.a(rpl-icmp6.o)
 .data          0x00000000        0x0 contiki-avr-atmega256rfr2.a(rpl-icmp6.o)
 .bss           0x00000000        0x0 contiki-avr-atmega256rfr2.a(rpl-icmp6.o)
 .text          0x00000000        0x0 contiki-avr-atmega256rfr2.a(rpl-mrhof.o)
 .data          0x00000000        0x0 contiki-avr-atmega256rfr2.a(rpl-mrhof.o)
 .bss           0x00000000        0x0 contiki-avr-atmega256rfr2.a(rpl-mrhof.o)
 .text          0x00000000        0x0 contiki-avr-atmega256rfr2.a(rpl-timers.o)
 .data          0x00000000        0x0 contiki-avr-atmega256rfr2.a(rpl-timers.o)
 .bss           0x00000000        0x0 contiki-avr-atmega256rfr2.a(rpl-timers.o)
 .text.rpl_schedule_dao_immediately
                0x00000000        0x8 contiki-avr-atmega256rfr2.a(rpl-timers.o)
 .text.rpl_cancel_dao
                0x00000000       0x1c contiki-avr-atmega256rfr2.a(rpl-timers.o)
 .text          0x00000000        0x0 contiki-avr-atmega256rfr2.a(nullmac.o)
 .data          0x00000000        0x0 contiki-avr-atmega256rfr2.a(nullmac.o)
 .bss           0x00000000        0x0 contiki-avr-atmega256rfr2.a(nullmac.o)
 .text          0x00000000        0x0 contiki-avr-atmega256rfr2.a(nullrdc.o)
 .data          0x00000000        0x0 contiki-avr-atmega256rfr2.a(nullrdc.o)
 .bss           0x00000000        0x0 contiki-avr-atmega256rfr2.a(nullrdc.o)
 .text          0x00000000        0x0 contiki-avr-atmega256rfr2.a(linkaddr.o)
 .data          0x00000000        0x0 contiki-avr-atmega256rfr2.a(linkaddr.o)
 .bss           0x00000000        0x0 contiki-avr-atmega256rfr2.a(linkaddr.o)
 .text          0x00000000        0x0 contiki-avr-atmega256rfr2.a(nbr-table.o)
 .data          0x00000000        0x0 contiki-avr-atmega256rfr2.a(nbr-table.o)
 .bss           0x00000000        0x0 contiki-avr-atmega256rfr2.a(nbr-table.o)
 .text          0x00000000        0x0 contiki-avr-atmega256rfr2.a(netstack.o)
 .data          0x00000000        0x0 contiki-avr-atmega256rfr2.a(netstack.o)
 .bss           0x00000000        0x0 contiki-avr-atmega256rfr2.a(netstack.o)
 .text          0x00000000        0x0 contiki-avr-atmega256rfr2.a(packetbuf.o)
 .data          0x00000000        0x0 contiki-avr-atmega256rfr2.a(packetbuf.o)
 .bss           0x00000000        0x0 contiki-avr-atmega256rfr2.a(packetbuf.o)
 .text.packetbuf_clear_hdr
                0x00000000        0x8 contiki-avr-atmega256rfr2.a(packetbuf.o)
 .text.packetbuf_hdr_remove
                0x00000000        0xc contiki-avr-atmega256rfr2.a(packetbuf.o)
 .text.packetbuf_reference
                0x00000000       0x2a contiki-avr-atmega256rfr2.a(packetbuf.o)
 .text          0x00000000        0x0 contiki-avr-atmega256rfr2.a(queuebuf.o)
 .data          0x00000000        0x0 contiki-avr-atmega256rfr2.a(queuebuf.o)
 .bss           0x00000000        0x0 contiki-avr-atmega256rfr2.a(queuebuf.o)
 .text.queuebuf_update_attr_from_packetbuf
                0x00000000       0x14 contiki-avr-atmega256rfr2.a(queuebuf.o)
 .text.queuebuf_update_from_packetbuf
                0x00000000       0x2e contiki-avr-atmega256rfr2.a(queuebuf.o)
 .text.queuebuf_dataptr
                0x00000000       0x38 contiki-avr-atmega256rfr2.a(queuebuf.o)
 .text.queuebuf_datalen
                0x00000000       0x10 contiki-avr-atmega256rfr2.a(queuebuf.o)
 .text.queuebuf_addr
                0x00000000       0x18 contiki-avr-atmega256rfr2.a(queuebuf.o)
 .text.queuebuf_attr
                0x00000000       0x1c contiki-avr-atmega256rfr2.a(queuebuf.o)
 .text.queuebuf_debug_print
                0x00000000        0x2 contiki-avr-atmega256rfr2.a(queuebuf.o)
 .text          0x00000000        0x0 contiki-avr-atmega256rfr2.a(nullsec.o)
 .data          0x00000000        0x0 contiki-avr-atmega256rfr2.a(nullsec.o)
 .bss           0x00000000        0x0 contiki-avr-atmega256rfr2.a(nullsec.o)
 .text          0x00000000        0x0 contiki-avr-atmega256rfr2.a(font.o)
 .data          0x00000000        0x0 contiki-avr-atmega256rfr2.a(font.o)
 .bss           0x00000000        0x0 contiki-avr-atmega256rfr2.a(font.o)
 .data.Font08px_126
                0x00000000        0x6 contiki-avr-atmega256rfr2.a(font.o)
 .data.Font08px_125
                0x00000000        0x4 contiki-avr-atmega256rfr2.a(font.o)
 .data.Font08px_124
                0x00000000        0x2 contiki-avr-atmega256rfr2.a(font.o)
 .data.Font08px_123
                0x00000000        0x4 contiki-avr-atmega256rfr2.a(font.o)
 .data.Font08px_lz
                0x00000000        0x4 contiki-avr-atmega256rfr2.a(font.o)
 .data.Font08px_ly
                0x00000000        0x5 contiki-avr-atmega256rfr2.a(font.o)
 .data.Font08px_lx
                0x00000000        0x6 contiki-avr-atmega256rfr2.a(font.o)
 .data.Font08px_lw
                0x00000000        0x6 contiki-avr-atmega256rfr2.a(font.o)
 .data.Font08px_lv
                0x00000000        0x6 contiki-avr-atmega256rfr2.a(font.o)
 .data.Font08px_lu
                0x00000000        0x5 contiki-avr-atmega256rfr2.a(font.o)
 .data.Font08px_lt
                0x00000000        0x4 contiki-avr-atmega256rfr2.a(font.o)
 .data.Font08px_ls
                0x00000000        0x5 contiki-avr-atmega256rfr2.a(font.o)
 .data.Font08px_lr
                0x00000000        0x4 contiki-avr-atmega256rfr2.a(font.o)
 .data.Font08px_lq
                0x00000000        0x5 contiki-avr-atmega256rfr2.a(font.o)
 .data.Font08px_lp
                0x00000000        0x5 contiki-avr-atmega256rfr2.a(font.o)
 .data.Font08px_lo
                0x00000000        0x5 contiki-avr-atmega256rfr2.a(font.o)
 .data.Font08px_ln
                0x00000000        0x5 contiki-avr-atmega256rfr2.a(font.o)
 .data.Font08px_lm
                0x00000000        0x6 contiki-avr-atmega256rfr2.a(font.o)
 .data.Font08px_ll
                0x00000000        0x2 contiki-avr-atmega256rfr2.a(font.o)
 .data.Font08px_lk
                0x00000000        0x5 contiki-avr-atmega256rfr2.a(font.o)
 .data.Font08px_lj
                0x00000000        0x3 contiki-avr-atmega256rfr2.a(font.o)
 .data.Font08px_li
                0x00000000        0x2 contiki-avr-atmega256rfr2.a(font.o)
 .data.Font08px_lh
                0x00000000        0x5 contiki-avr-atmega256rfr2.a(font.o)
 .data.Font08px_lg
                0x00000000        0x5 contiki-avr-atmega256rfr2.a(font.o)
 .data.Font08px_lf
                0x00000000        0x4 contiki-avr-atmega256rfr2.a(font.o)
 .data.Font08px_le
                0x00000000        0x5 contiki-avr-atmega256rfr2.a(font.o)
 .data.Font08px_ld
                0x00000000        0x5 contiki-avr-atmega256rfr2.a(font.o)
 .data.Font08px_lc
                0x00000000        0x5 contiki-avr-atmega256rfr2.a(font.o)
 .data.Font08px_lb
                0x00000000        0x5 contiki-avr-atmega256rfr2.a(font.o)
 .data.Font08px_la
                0x00000000        0x5 contiki-avr-atmega256rfr2.a(font.o)
 .data.Font08px_96
                0x00000000        0x3 contiki-avr-atmega256rfr2.a(font.o)
 .data.Font08px_95
                0x00000000        0x4 contiki-avr-atmega256rfr2.a(font.o)
 .data.Font08px_94
                0x00000000        0x4 contiki-avr-atmega256rfr2.a(font.o)
 .data.Font08px_93
                0x00000000        0x4 contiki-avr-atmega256rfr2.a(font.o)
 .data.Font08px_92
                0x00000000        0x4 contiki-avr-atmega256rfr2.a(font.o)
 .data.Font08px_91
                0x00000000        0x4 contiki-avr-atmega256rfr2.a(font.o)
 .data.Font08px_UZ
                0x00000000        0x6 contiki-avr-atmega256rfr2.a(font.o)
 .data.Font08px_UY
                0x00000000        0x6 contiki-avr-atmega256rfr2.a(font.o)
 .data.Font08px_UX
                0x00000000        0x6 contiki-avr-atmega256rfr2.a(font.o)
 .data.Font08px_UW
                0x00000000        0x6 contiki-avr-atmega256rfr2.a(font.o)
 .data.Font08px_UV
                0x00000000        0x6 contiki-avr-atmega256rfr2.a(font.o)
 .data.Font08px_UU
                0x00000000        0x5 contiki-avr-atmega256rfr2.a(font.o)
 .data.Font08px_UT
                0x00000000        0x6 contiki-avr-atmega256rfr2.a(font.o)
 .data.Font08px_US
                0x00000000        0x5 contiki-avr-atmega256rfr2.a(font.o)
 .data.Font08px_UR
                0x00000000        0x5 contiki-avr-atmega256rfr2.a(font.o)
 .data.Font08px_UQ
                0x00000000        0x6 contiki-avr-atmega256rfr2.a(font.o)
 .data.Font08px_UP
                0x00000000        0x5 contiki-avr-atmega256rfr2.a(font.o)
 .data.Font08px_UO
                0x00000000        0x5 contiki-avr-atmega256rfr2.a(font.o)
 .data.Font08px_UN
                0x00000000        0x6 contiki-avr-atmega256rfr2.a(font.o)
 .data.Font08px_UM
                0x00000000        0x6 contiki-avr-atmega256rfr2.a(font.o)
 .data.Font08px_UL
                0x00000000        0x5 contiki-avr-atmega256rfr2.a(font.o)
 .data.Font08px_UK
                0x00000000        0x6 contiki-avr-atmega256rfr2.a(font.o)
 .data.Font08px_UJ
                0x00000000        0x5 contiki-avr-atmega256rfr2.a(font.o)
 .data.Font08px_UI
                0x00000000        0x4 contiki-avr-atmega256rfr2.a(font.o)
 .data.Font08px_UH
                0x00000000        0x5 contiki-avr-atmega256rfr2.a(font.o)
 .data.Font08px_UG
                0x00000000        0x6 contiki-avr-atmega256rfr2.a(font.o)
 .data.Font08px_UF
                0x00000000        0x5 contiki-avr-atmega256rfr2.a(font.o)
 .data.Font08px_UE
                0x00000000        0x5 contiki-avr-atmega256rfr2.a(font.o)
 .data.Font08px_UD
                0x00000000        0x5 contiki-avr-atmega256rfr2.a(font.o)
 .data.Font08px_UC
                0x00000000        0x5 contiki-avr-atmega256rfr2.a(font.o)
 .data.Font08px_UB
                0x00000000        0x5 contiki-avr-atmega256rfr2.a(font.o)
 .data.Font08px_UA
                0x00000000        0x6 contiki-avr-atmega256rfr2.a(font.o)
 .data.Font08px_64
                0x00000000        0x9 contiki-avr-atmega256rfr2.a(font.o)
 .data.Font08px_63
                0x00000000        0x6 contiki-avr-atmega256rfr2.a(font.o)
 .data.Font08px_62
                0x00000000        0x5 contiki-avr-atmega256rfr2.a(font.o)
 .data.Font08px_61
                0x00000000        0x5 contiki-avr-atmega256rfr2.a(font.o)
 .data.Font08px_60
                0x00000000        0x5 contiki-avr-atmega256rfr2.a(font.o)
 .data.Font08px_59
                0x00000000        0x2 contiki-avr-atmega256rfr2.a(font.o)
 .data.Font08px_58
                0x00000000        0x2 contiki-avr-atmega256rfr2.a(font.o)
 .data.Font08px_N9
                0x00000000        0x6 contiki-avr-atmega256rfr2.a(font.o)
 .data.Font08px_N8
                0x00000000        0x6 contiki-avr-atmega256rfr2.a(font.o)
 .data.Font08px_N7
                0x00000000        0x6 contiki-avr-atmega256rfr2.a(font.o)
 .data.Font08px_N6
                0x00000000        0x6 contiki-avr-atmega256rfr2.a(font.o)
 .data.Font08px_N5
                0x00000000        0x6 contiki-avr-atmega256rfr2.a(font.o)
 .data.Font08px_N4
                0x00000000        0x6 contiki-avr-atmega256rfr2.a(font.o)
 .data.Font08px_N3
                0x00000000        0x6 contiki-avr-atmega256rfr2.a(font.o)
 .data.Font08px_N2
                0x00000000        0x6 contiki-avr-atmega256rfr2.a(font.o)
 .data.Font08px_N1
                0x00000000        0x6 contiki-avr-atmega256rfr2.a(font.o)
 .data.Font08px_N0
                0x00000000        0x6 contiki-avr-atmega256rfr2.a(font.o)
 .data.Font08px_47
                0x00000000        0x4 contiki-avr-atmega256rfr2.a(font.o)
 .data.Font08px_46
                0x00000000        0x2 contiki-avr-atmega256rfr2.a(font.o)
 .data.Font08px_45
                0x00000000        0x4 contiki-avr-atmega256rfr2.a(font.o)
 .data.Font08px_44
                0x00000000        0x2 contiki-avr-atmega256rfr2.a(font.o)
 .data.Font08px_43
                0x00000000        0x4 contiki-avr-atmega256rfr2.a(font.o)
 .data.Font08px_42
                0x00000000        0x4 contiki-avr-atmega256rfr2.a(font.o)
 .data.Font08px_41
                0x00000000        0x4 contiki-avr-atmega256rfr2.a(font.o)
 .data.Font08px_40
                0x00000000        0x4 contiki-avr-atmega256rfr2.a(font.o)
 .data.Font08px_39
                0x00000000        0x2 contiki-avr-atmega256rfr2.a(font.o)
 .data.Font08px_38
                0x00000000        0x6 contiki-avr-atmega256rfr2.a(font.o)
 .data.Font08px_37
                0x00000000        0x6 contiki-avr-atmega256rfr2.a(font.o)
 .data.Font08px_36
                0x00000000        0x6 contiki-avr-atmega256rfr2.a(font.o)
 .data.Font08px_35
                0x00000000        0x6 contiki-avr-atmega256rfr2.a(font.o)
 .data.Font08px_34
                0x00000000        0x4 contiki-avr-atmega256rfr2.a(font.o)
 .data.Font08px_33
                0x00000000        0x2 contiki-avr-atmega256rfr2.a(font.o)
 .data.Font08px_32
                0x00000000        0x3 contiki-avr-atmega256rfr2.a(font.o)
 .data.font_table
                0x00000000       0xbe contiki-avr-atmega256rfr2.a(font.o)
 .debug_info    0x00000000      0x7ea contiki-avr-atmega256rfr2.a(font.o)
 .debug_abbrev  0x00000000       0x70 contiki-avr-atmega256rfr2.a(font.o)
 .debug_aranges
                0x00000000       0x18 contiki-avr-atmega256rfr2.a(font.o)
 .debug_line    0x00000000       0x6c contiki-avr-atmega256rfr2.a(font.o)
 .debug_str     0x00000000      0x5c6 contiki-avr-atmega256rfr2.a(font.o)
 .comment       0x00000000       0x31 contiki-avr-atmega256rfr2.a(font.o)
 .text          0x00000000        0x0 contiki-avr-atmega256rfr2.a(rtimer-arch.o)
 .data          0x00000000        0x0 contiki-avr-atmega256rfr2.a(rtimer-arch.o)
 .bss           0x00000000        0x0 contiki-avr-atmega256rfr2.a(rtimer-arch.o)
 .text          0x00000000        0x0 contiki-avr-atmega256rfr2.a(stimer.o)
 .data          0x00000000        0x0 contiki-avr-atmega256rfr2.a(stimer.o)
 .bss           0x00000000        0x0 contiki-avr-atmega256rfr2.a(stimer.o)
 .text.stimer_reset
                0x00000000       0x2c contiki-avr-atmega256rfr2.a(stimer.o)
 .text.stimer_restart
                0x00000000       0x18 contiki-avr-atmega256rfr2.a(stimer.o)
 .text.stimer_remaining
                0x00000000       0x40 contiki-avr-atmega256rfr2.a(stimer.o)
 .text.stimer_elapsed
                0x00000000       0x28 contiki-avr-atmega256rfr2.a(stimer.o)
 .text          0x00000000        0x0 contiki-avr-atmega256rfr2.a(sicslowpan.o)
 .data          0x00000000        0x0 contiki-avr-atmega256rfr2.a(sicslowpan.o)
 .bss           0x00000000        0x0 contiki-avr-atmega256rfr2.a(sicslowpan.o)
 .text.rime_sniffer_add
                0x00000000        0xa contiki-avr-atmega256rfr2.a(sicslowpan.o)
 .text.rime_sniffer_remove
                0x00000000        0xa contiki-avr-atmega256rfr2.a(sicslowpan.o)
 .text.sicslowpan_get_last_rssi
                0x00000000        0xa contiki-avr-atmega256rfr2.a(sicslowpan.o)
 .text          0x00000000        0x0 contiki-avr-atmega256rfr2.a(framer-802154.o)
 .data          0x00000000        0x0 contiki-avr-atmega256rfr2.a(framer-802154.o)
 .bss           0x00000000        0x0 contiki-avr-atmega256rfr2.a(framer-802154.o)
 .text          0x00000000        0x0 contiki-avr-atmega256rfr2.a(framer.o)
 .data          0x00000000        0x0 contiki-avr-atmega256rfr2.a(framer.o)
 .bss           0x00000000        0x0 contiki-avr-atmega256rfr2.a(framer.o)
 .text          0x00000000        0x0 contiki-avr-atmega256rfr2.a(mac.o)
 .data          0x00000000        0x0 contiki-avr-atmega256rfr2.a(mac.o)
 .bss           0x00000000        0x0 contiki-avr-atmega256rfr2.a(mac.o)
 .text          0x00000000        0x0 contiki-avr-atmega256rfr2.a(frame802154.o)
 .data          0x00000000        0x0 contiki-avr-atmega256rfr2.a(frame802154.o)
 .bss           0x00000000        0x0 contiki-avr-atmega256rfr2.a(frame802154.o)
 .text          0x00000000        0x0 /usr/local/bin/../lib/gcc/avr/4.8.1/avr6/libgcc.a(_udivmodhi4.o)
 .data          0x00000000        0x0 /usr/local/bin/../lib/gcc/avr/4.8.1/avr6/libgcc.a(_udivmodhi4.o)
 .bss           0x00000000        0x0 /usr/local/bin/../lib/gcc/avr/4.8.1/avr6/libgcc.a(_udivmodhi4.o)
 .text.libgcc.mul
                0x00000000        0x0 /usr/local/bin/../lib/gcc/avr/4.8.1/avr6/libgcc.a(_udivmodhi4.o)
 .text.libgcc   0x00000000        0x0 /usr/local/bin/../lib/gcc/avr/4.8.1/avr6/libgcc.a(_udivmodhi4.o)
 .text.libgcc.prologue
                0x00000000        0x0 /usr/local/bin/../lib/gcc/avr/4.8.1/avr6/libgcc.a(_udivmodhi4.o)
 .text.libgcc.builtins
                0x00000000        0x0 /usr/local/bin/../lib/gcc/avr/4.8.1/avr6/libgcc.a(_udivmodhi4.o)
 .text.libgcc.fmul
                0x00000000        0x0 /usr/local/bin/../lib/gcc/avr/4.8.1/avr6/libgcc.a(_udivmodhi4.o)
 .text.libgcc.fixed
                0x00000000        0x0 /usr/local/bin/../lib/gcc/avr/4.8.1/avr6/libgcc.a(_udivmodhi4.o)
 .text          0x00000000        0x0 /usr/local/bin/../lib/gcc/avr/4.8.1/avr6/libgcc.a(_divmodhi4.o)
 .data          0x00000000        0x0 /usr/local/bin/../lib/gcc/avr/4.8.1/avr6/libgcc.a(_divmodhi4.o)
 .bss           0x00000000        0x0 /usr/local/bin/../lib/gcc/avr/4.8.1/avr6/libgcc.a(_divmodhi4.o)
 .text.libgcc.mul
                0x00000000        0x0 /usr/local/bin/../lib/gcc/avr/4.8.1/avr6/libgcc.a(_divmodhi4.o)
 .text.libgcc   0x00000000        0x0 /usr/local/bin/../lib/gcc/avr/4.8.1/avr6/libgcc.a(_divmodhi4.o)
 .text.libgcc.prologue
                0x00000000        0x0 /usr/local/bin/../lib/gcc/avr/4.8.1/avr6/libgcc.a(_divmodhi4.o)
 .text.libgcc.builtins
                0x00000000        0x0 /usr/local/bin/../lib/gcc/avr/4.8.1/avr6/libgcc.a(_divmodhi4.o)
 .text.libgcc.fmul
                0x00000000        0x0 /usr/local/bin/../lib/gcc/avr/4.8.1/avr6/libgcc.a(_divmodhi4.o)
 .text.libgcc.fixed
                0x00000000        0x0 /usr/local/bin/../lib/gcc/avr/4.8.1/avr6/libgcc.a(_divmodhi4.o)
 .text          0x00000000        0x0 /usr/local/bin/../lib/gcc/avr/4.8.1/avr6/libgcc.a(_udivmodsi4.o)
 .data          0x00000000        0x0 /usr/local/bin/../lib/gcc/avr/4.8.1/avr6/libgcc.a(_udivmodsi4.o)
 .bss           0x00000000        0x0 /usr/local/bin/../lib/gcc/avr/4.8.1/avr6/libgcc.a(_udivmodsi4.o)
 .text.libgcc.mul
                0x00000000        0x0 /usr/local/bin/../lib/gcc/avr/4.8.1/avr6/libgcc.a(_udivmodsi4.o)
 .text.libgcc   0x00000000        0x0 /usr/local/bin/../lib/gcc/avr/4.8.1/avr6/libgcc.a(_udivmodsi4.o)
 .text.libgcc.prologue
                0x00000000        0x0 /usr/local/bin/../lib/gcc/avr/4.8.1/avr6/libgcc.a(_udivmodsi4.o)
 .text.libgcc.builtins
                0x00000000        0x0 /usr/local/bin/../lib/gcc/avr/4.8.1/avr6/libgcc.a(_udivmodsi4.o)
 .text.libgcc.fmul
                0x00000000        0x0 /usr/local/bin/../lib/gcc/avr/4.8.1/avr6/libgcc.a(_udivmodsi4.o)
 .text.libgcc.fixed
                0x00000000        0x0 /usr/local/bin/../lib/gcc/avr/4.8.1/avr6/libgcc.a(_udivmodsi4.o)
 .text          0x00000000        0x0 /usr/local/bin/../lib/gcc/avr/4.8.1/avr6/libgcc.a(_exit.o)
 .data          0x00000000        0x0 /usr/local/bin/../lib/gcc/avr/4.8.1/avr6/libgcc.a(_exit.o)
 .bss           0x00000000        0x0 /usr/local/bin/../lib/gcc/avr/4.8.1/avr6/libgcc.a(_exit.o)
 .text.libgcc.mul
                0x00000000        0x0 /usr/local/bin/../lib/gcc/avr/4.8.1/avr6/libgcc.a(_exit.o)
 .text.libgcc.div
                0x00000000        0x0 /usr/local/bin/../lib/gcc/avr/4.8.1/avr6/libgcc.a(_exit.o)
 .text.libgcc   0x00000000        0x0 /usr/local/bin/../lib/gcc/avr/4.8.1/avr6/libgcc.a(_exit.o)
 .text.libgcc.prologue
                0x00000000        0x0 /usr/local/bin/../lib/gcc/avr/4.8.1/avr6/libgcc.a(_exit.o)
 .text.libgcc.builtins
                0x00000000        0x0 /usr/local/bin/../lib/gcc/avr/4.8.1/avr6/libgcc.a(_exit.o)
 .text.libgcc.fmul
                0x00000000        0x0 /usr/local/bin/../lib/gcc/avr/4.8.1/avr6/libgcc.a(_exit.o)
 .text.libgcc.fixed
                0x00000000        0x0 /usr/local/bin/../lib/gcc/avr/4.8.1/avr6/libgcc.a(_exit.o)
 .text          0x00000000        0x0 /usr/local/bin/../lib/gcc/avr/4.8.1/avr6/libgcc.a(_tablejump.o)
 .data          0x00000000        0x0 /usr/local/bin/../lib/gcc/avr/4.8.1/avr6/libgcc.a(_tablejump.o)
 .bss           0x00000000        0x0 /usr/local/bin/../lib/gcc/avr/4.8.1/avr6/libgcc.a(_tablejump.o)
 .text.libgcc.mul
                0x00000000        0x0 /usr/local/bin/../lib/gcc/avr/4.8.1/avr6/libgcc.a(_tablejump.o)
 .text.libgcc.div
                0x00000000        0x0 /usr/local/bin/../lib/gcc/avr/4.8.1/avr6/libgcc.a(_tablejump.o)
 .text.libgcc.prologue
                0x00000000        0x0 /usr/local/bin/../lib/gcc/avr/4.8.1/avr6/libgcc.a(_tablejump.o)
 .text.libgcc.builtins
                0x00000000        0x0 /usr/local/bin/../lib/gcc/avr/4.8.1/avr6/libgcc.a(_tablejump.o)
 .text.libgcc.fmul
                0x00000000        0x0 /usr/local/bin/../lib/gcc/avr/4.8.1/avr6/libgcc.a(_tablejump.o)
 .text.libgcc.fixed
                0x00000000        0x0 /usr/local/bin/../lib/gcc/avr/4.8.1/avr6/libgcc.a(_tablejump.o)
 .text          0x00000000        0x0 /usr/local/bin/../lib/gcc/avr/4.8.1/avr6/libgcc.a(_copy_data.o)
 .data          0x00000000        0x0 /usr/local/bin/../lib/gcc/avr/4.8.1/avr6/libgcc.a(_copy_data.o)
 .bss           0x00000000        0x0 /usr/local/bin/../lib/gcc/avr/4.8.1/avr6/libgcc.a(_copy_data.o)
 .text.libgcc.mul
                0x00000000        0x0 /usr/local/bin/../lib/gcc/avr/4.8.1/avr6/libgcc.a(_copy_data.o)
 .text.libgcc.div
                0x00000000        0x0 /usr/local/bin/../lib/gcc/avr/4.8.1/avr6/libgcc.a(_copy_data.o)
 .text.libgcc   0x00000000        0x0 /usr/local/bin/../lib/gcc/avr/4.8.1/avr6/libgcc.a(_copy_data.o)
 .text.libgcc.prologue
                0x00000000        0x0 /usr/local/bin/../lib/gcc/avr/4.8.1/avr6/libgcc.a(_copy_data.o)
 .text.libgcc.builtins
                0x00000000        0x0 /usr/local/bin/../lib/gcc/avr/4.8.1/avr6/libgcc.a(_copy_data.o)
 .text.libgcc.fmul
                0x00000000        0x0 /usr/local/bin/../lib/gcc/avr/4.8.1/avr6/libgcc.a(_copy_data.o)
 .text.libgcc.fixed
                0x00000000        0x0 /usr/local/bin/../lib/gcc/avr/4.8.1/avr6/libgcc.a(_copy_data.o)
 .text          0x00000000        0x0 /usr/local/bin/../lib/gcc/avr/4.8.1/avr6/libgcc.a(_clear_bss.o)
 .data          0x00000000        0x0 /usr/local/bin/../lib/gcc/avr/4.8.1/avr6/libgcc.a(_clear_bss.o)
 .bss           0x00000000        0x0 /usr/local/bin/../lib/gcc/avr/4.8.1/avr6/libgcc.a(_clear_bss.o)
 .text.libgcc.mul
                0x00000000        0x0 /usr/local/bin/../lib/gcc/avr/4.8.1/avr6/libgcc.a(_clear_bss.o)
 .text.libgcc.div
                0x00000000        0x0 /usr/local/bin/../lib/gcc/avr/4.8.1/avr6/libgcc.a(_clear_bss.o)
 .text.libgcc   0x00000000        0x0 /usr/local/bin/../lib/gcc/avr/4.8.1/avr6/libgcc.a(_clear_bss.o)
 .text.libgcc.prologue
                0x00000000        0x0 /usr/local/bin/../lib/gcc/avr/4.8.1/avr6/libgcc.a(_clear_bss.o)
 .text.libgcc.builtins
                0x00000000        0x0 /usr/local/bin/../lib/gcc/avr/4.8.1/avr6/libgcc.a(_clear_bss.o)
 .text.libgcc.fmul
                0x00000000        0x0 /usr/local/bin/../lib/gcc/avr/4.8.1/avr6/libgcc.a(_clear_bss.o)
 .text.libgcc.fixed
                0x00000000        0x0 /usr/local/bin/../lib/gcc/avr/4.8.1/avr6/libgcc.a(_clear_bss.o)
 .text          0x00000000        0x0 /usr/local/bin/../lib/gcc/avr/4.8.1/avr6/libgcc.a(_bswapsi2.o)
 .data          0x00000000        0x0 /usr/local/bin/../lib/gcc/avr/4.8.1/avr6/libgcc.a(_bswapsi2.o)
 .bss           0x00000000        0x0 /usr/local/bin/../lib/gcc/avr/4.8.1/avr6/libgcc.a(_bswapsi2.o)
 .text.libgcc.mul
                0x00000000        0x0 /usr/local/bin/../lib/gcc/avr/4.8.1/avr6/libgcc.a(_bswapsi2.o)
 .text.libgcc.div
                0x00000000        0x0 /usr/local/bin/../lib/gcc/avr/4.8.1/avr6/libgcc.a(_bswapsi2.o)
 .text.libgcc   0x00000000        0x0 /usr/local/bin/../lib/gcc/avr/4.8.1/avr6/libgcc.a(_bswapsi2.o)
 .text.libgcc.prologue
                0x00000000        0x0 /usr/local/bin/../lib/gcc/avr/4.8.1/avr6/libgcc.a(_bswapsi2.o)
 .text.libgcc.fmul
                0x00000000        0x0 /usr/local/bin/../lib/gcc/avr/4.8.1/avr6/libgcc.a(_bswapsi2.o)
 .text.libgcc.fixed
                0x00000000        0x0 /usr/local/bin/../lib/gcc/avr/4.8.1/avr6/libgcc.a(_bswapsi2.o)
 .text          0x00000000        0x0 /usr/local/bin/../lib/gcc/avr/4.8.1/avr6/libgcc.a(_umulhisi3.o)
 .data          0x00000000        0x0 /usr/local/bin/../lib/gcc/avr/4.8.1/avr6/libgcc.a(_umulhisi3.o)
 .bss           0x00000000        0x0 /usr/local/bin/../lib/gcc/avr/4.8.1/avr6/libgcc.a(_umulhisi3.o)
 .text.libgcc.div
                0x00000000        0x0 /usr/local/bin/../lib/gcc/avr/4.8.1/avr6/libgcc.a(_umulhisi3.o)
 .text.libgcc   0x00000000        0x0 /usr/local/bin/../lib/gcc/avr/4.8.1/avr6/libgcc.a(_umulhisi3.o)
 .text.libgcc.prologue
                0x00000000        0x0 /usr/local/bin/../lib/gcc/avr/4.8.1/avr6/libgcc.a(_umulhisi3.o)
 .text.libgcc.builtins
                0x00000000        0x0 /usr/local/bin/../lib/gcc/avr/4.8.1/avr6/libgcc.a(_umulhisi3.o)
 .text.libgcc.fmul
                0x00000000        0x0 /usr/local/bin/../lib/gcc/avr/4.8.1/avr6/libgcc.a(_umulhisi3.o)
 .text.libgcc.fixed
                0x00000000        0x0 /usr/local/bin/../lib/gcc/avr/4.8.1/avr6/libgcc.a(_umulhisi3.o)
 .text          0x00000000        0x0 /usr/local/bin/../lib/gcc/avr/4.8.1/../../../../avr/lib/avr6/libc.a(rand.o)
 .bss           0x00000000        0x0 /usr/local/bin/../lib/gcc/avr/4.8.1/../../../../avr/lib/avr6/libc.a(rand.o)
 .text          0x00000000        0x0 /usr/local/bin/../lib/gcc/avr/4.8.1/../../../../avr/lib/avr6/libc.a(memcmp.o)
 .data          0x00000000        0x0 /usr/local/bin/../lib/gcc/avr/4.8.1/../../../../avr/lib/avr6/libc.a(memcmp.o)
 .bss           0x00000000        0x0 /usr/local/bin/../lib/gcc/avr/4.8.1/../../../../avr/lib/avr6/libc.a(memcmp.o)
 .text          0x00000000        0x0 /usr/local/bin/../lib/gcc/avr/4.8.1/../../../../avr/lib/avr6/libc.a(memcpy.o)
 .data          0x00000000        0x0 /usr/local/bin/../lib/gcc/avr/4.8.1/../../../../avr/lib/avr6/libc.a(memcpy.o)
 .bss           0x00000000        0x0 /usr/local/bin/../lib/gcc/avr/4.8.1/../../../../avr/lib/avr6/libc.a(memcpy.o)
 .text          0x00000000        0x0 /usr/local/bin/../lib/gcc/avr/4.8.1/../../../../avr/lib/avr6/libc.a(memmove.o)
 .data          0x00000000        0x0 /usr/local/bin/../lib/gcc/avr/4.8.1/../../../../avr/lib/avr6/libc.a(memmove.o)
 .bss           0x00000000        0x0 /usr/local/bin/../lib/gcc/avr/4.8.1/../../../../avr/lib/avr6/libc.a(memmove.o)
 .text          0x00000000        0x0 /usr/local/bin/../lib/gcc/avr/4.8.1/../../../../avr/lib/avr6/libc.a(memset.o)
 .data          0x00000000        0x0 /usr/local/bin/../lib/gcc/avr/4.8.1/../../../../avr/lib/avr6/libc.a(memset.o)
 .bss           0x00000000        0x0 /usr/local/bin/../lib/gcc/avr/4.8.1/../../../../avr/lib/avr6/libc.a(memset.o)
 .text          0x00000000        0x0 /usr/local/bin/../lib/gcc/avr/4.8.1/../../../../avr/lib/avr6/libc.a(iob.o)
 .data          0x00000000        0x0 /usr/local/bin/../lib/gcc/avr/4.8.1/../../../../avr/lib/avr6/libc.a(iob.o)
 .bss           0x00000000        0x0 /usr/local/bin/../lib/gcc/avr/4.8.1/../../../../avr/lib/avr6/libc.a(iob.o)
 .text          0x00000000        0x0 /usr/local/bin/../lib/gcc/avr/4.8.1/../../../../avr/lib/avr6/libc.a(printf.o)
 .data          0x00000000        0x0 /usr/local/bin/../lib/gcc/avr/4.8.1/../../../../avr/lib/avr6/libc.a(printf.o)
 .bss           0x00000000        0x0 /usr/local/bin/../lib/gcc/avr/4.8.1/../../../../avr/lib/avr6/libc.a(printf.o)
 .text          0x00000000        0x0 /usr/local/bin/../lib/gcc/avr/4.8.1/../../../../avr/lib/avr6/libc.a(printf_p.o)
 .data          0x00000000        0x0 /usr/local/bin/../lib/gcc/avr/4.8.1/../../../../avr/lib/avr6/libc.a(printf_p.o)
 .bss           0x00000000        0x0 /usr/local/bin/../lib/gcc/avr/4.8.1/../../../../avr/lib/avr6/libc.a(printf_p.o)
 .text          0x00000000        0x0 /usr/local/bin/../lib/gcc/avr/4.8.1/../../../../avr/lib/avr6/libc.a(putchar.o)
 .data          0x00000000        0x0 /usr/local/bin/../lib/gcc/avr/4.8.1/../../../../avr/lib/avr6/libc.a(putchar.o)
 .bss           0x00000000        0x0 /usr/local/bin/../lib/gcc/avr/4.8.1/../../../../avr/lib/avr6/libc.a(putchar.o)
 .text          0x00000000        0x0 /usr/local/bin/../lib/gcc/avr/4.8.1/../../../../avr/lib/avr6/libc.a(puts.o)
 .data          0x00000000        0x0 /usr/local/bin/../lib/gcc/avr/4.8.1/../../../../avr/lib/avr6/libc.a(puts.o)
 .bss           0x00000000        0x0 /usr/local/bin/../lib/gcc/avr/4.8.1/../../../../avr/lib/avr6/libc.a(puts.o)
 .text          0x00000000        0x0 /usr/local/bin/../lib/gcc/avr/4.8.1/../../../../avr/lib/avr6/libc.a(vfprintf_std.o)
 .data          0x00000000        0x0 /usr/local/bin/../lib/gcc/avr/4.8.1/../../../../avr/lib/avr6/libc.a(vfprintf_std.o)
 .bss           0x00000000        0x0 /usr/local/bin/../lib/gcc/avr/4.8.1/../../../../avr/lib/avr6/libc.a(vfprintf_std.o)
 .text          0x00000000        0x0 /usr/local/bin/../lib/gcc/avr/4.8.1/../../../../avr/lib/avr6/libc.a(eerd_block_atmega256rfr2.o)
 .data          0x00000000        0x0 /usr/local/bin/../lib/gcc/avr/4.8.1/../../../../avr/lib/avr6/libc.a(eerd_block_atmega256rfr2.o)
 .bss           0x00000000        0x0 /usr/local/bin/../lib/gcc/avr/4.8.1/../../../../avr/lib/avr6/libc.a(eerd_block_atmega256rfr2.o)
 .text          0x00000000        0x0 /usr/local/bin/../lib/gcc/avr/4.8.1/../../../../avr/lib/avr6/libc.a(eerd_byte_atmega256rfr2.o)
 .data          0x00000000        0x0 /usr/local/bin/../lib/gcc/avr/4.8.1/../../../../avr/lib/avr6/libc.a(eerd_byte_atmega256rfr2.o)
 .bss           0x00000000        0x0 /usr/local/bin/../lib/gcc/avr/4.8.1/../../../../avr/lib/avr6/libc.a(eerd_byte_atmega256rfr2.o)
 .text          0x00000000        0x0 /usr/local/bin/../lib/gcc/avr/4.8.1/../../../../avr/lib/avr6/libc.a(eerd_word_atmega256rfr2.o)
 .data          0x00000000        0x0 /usr/local/bin/../lib/gcc/avr/4.8.1/../../../../avr/lib/avr6/libc.a(eerd_word_atmega256rfr2.o)
 .bss           0x00000000        0x0 /usr/local/bin/../lib/gcc/avr/4.8.1/../../../../avr/lib/avr6/libc.a(eerd_word_atmega256rfr2.o)
 .text          0x00000000        0x0 /usr/local/bin/../lib/gcc/avr/4.8.1/../../../../avr/lib/avr6/libc.a(eewr_block_atmega256rfr2.o)
 .data          0x00000000        0x0 /usr/local/bin/../lib/gcc/avr/4.8.1/../../../../avr/lib/avr6/libc.a(eewr_block_atmega256rfr2.o)
 .bss           0x00000000        0x0 /usr/local/bin/../lib/gcc/avr/4.8.1/../../../../avr/lib/avr6/libc.a(eewr_block_atmega256rfr2.o)
 .text          0x00000000        0x0 /usr/local/bin/../lib/gcc/avr/4.8.1/../../../../avr/lib/avr6/libc.a(eewr_byte_atmega256rfr2.o)
 .data          0x00000000        0x0 /usr/local/bin/../lib/gcc/avr/4.8.1/../../../../avr/lib/avr6/libc.a(eewr_byte_atmega256rfr2.o)
 .bss           0x00000000        0x0 /usr/local/bin/../lib/gcc/avr/4.8.1/../../../../avr/lib/avr6/libc.a(eewr_byte_atmega256rfr2.o)
 .text          0x00000000        0x0 /usr/local/bin/../lib/gcc/avr/4.8.1/../../../../avr/lib/avr6/libc.a(eewr_word_atmega256rfr2.o)
 .data          0x00000000        0x0 /usr/local/bin/../lib/gcc/avr/4.8.1/../../../../avr/lib/avr6/libc.a(eewr_word_atmega256rfr2.o)
 .bss           0x00000000        0x0 /usr/local/bin/../lib/gcc/avr/4.8.1/../../../../avr/lib/avr6/libc.a(eewr_word_atmega256rfr2.o)
 .text          0x00000000        0x0 /usr/local/bin/../lib/gcc/avr/4.8.1/../../../../avr/lib/avr6/libc.a(strnlen_P.o)
 .data          0x00000000        0x0 /usr/local/bin/../lib/gcc/avr/4.8.1/../../../../avr/lib/avr6/libc.a(strnlen_P.o)
 .bss           0x00000000        0x0 /usr/local/bin/../lib/gcc/avr/4.8.1/../../../../avr/lib/avr6/libc.a(strnlen_P.o)
 .text          0x00000000        0x0 /usr/local/bin/../lib/gcc/avr/4.8.1/../../../../avr/lib/avr6/libc.a(strnlen.o)
 .data          0x00000000        0x0 /usr/local/bin/../lib/gcc/avr/4.8.1/../../../../avr/lib/avr6/libc.a(strnlen.o)
 .bss           0x00000000        0x0 /usr/local/bin/../lib/gcc/avr/4.8.1/../../../../avr/lib/avr6/libc.a(strnlen.o)
 .text          0x00000000        0x0 /usr/local/bin/../lib/gcc/avr/4.8.1/../../../../avr/lib/avr6/libc.a(fputc.o)
 .data          0x00000000        0x0 /usr/local/bin/../lib/gcc/avr/4.8.1/../../../../avr/lib/avr6/libc.a(fputc.o)
 .bss           0x00000000        0x0 /usr/local/bin/../lib/gcc/avr/4.8.1/../../../../avr/lib/avr6/libc.a(fputc.o)
 .text          0x00000000        0x0 /usr/local/bin/../lib/gcc/avr/4.8.1/../../../../avr/lib/avr6/libc.a(ultoa_invert.o)
 .data          0x00000000        0x0 /usr/local/bin/../lib/gcc/avr/4.8.1/../../../../avr/lib/avr6/libc.a(ultoa_invert.o)
 .bss           0x00000000        0x0 /usr/local/bin/../lib/gcc/avr/4.8.1/../../../../avr/lib/avr6/libc.a(ultoa_invert.o)
 .text          0x00000000        0x0 /usr/local/bin/../lib/gcc/avr/4.8.1/avr6/libgcc.a(_divmodsi4.o)
 .data          0x00000000        0x0 /usr/local/bin/../lib/gcc/avr/4.8.1/avr6/libgcc.a(_divmodsi4.o)
 .bss           0x00000000        0x0 /usr/local/bin/../lib/gcc/avr/4.8.1/avr6/libgcc.a(_divmodsi4.o)
 .text.libgcc.mul
                0x00000000        0x0 /usr/local/bin/../lib/gcc/avr/4.8.1/avr6/libgcc.a(_divmodsi4.o)
 .text.libgcc   0x00000000        0x0 /usr/local/bin/../lib/gcc/avr/4.8.1/avr6/libgcc.a(_divmodsi4.o)
 .text.libgcc.prologue
                0x00000000        0x0 /usr/local/bin/../lib/gcc/avr/4.8.1/avr6/libgcc.a(_divmodsi4.o)
 .text.libgcc.builtins
                0x00000000        0x0 /usr/local/bin/../lib/gcc/avr/4.8.1/avr6/libgcc.a(_divmodsi4.o)
 .text.libgcc.fmul
                0x00000000        0x0 /usr/local/bin/../lib/gcc/avr/4.8.1/avr6/libgcc.a(_divmodsi4.o)
 .text.libgcc.fixed
                0x00000000        0x0 /usr/local/bin/../lib/gcc/avr/4.8.1/avr6/libgcc.a(_divmodsi4.o)
 .text          0x00000000        0x0 /usr/local/bin/../lib/gcc/avr/4.8.1/avr6/libgcc.a(_negsi2.o)
 .data          0x00000000        0x0 /usr/local/bin/../lib/gcc/avr/4.8.1/avr6/libgcc.a(_negsi2.o)
 .bss           0x00000000        0x0 /usr/local/bin/../lib/gcc/avr/4.8.1/avr6/libgcc.a(_negsi2.o)
 .text.libgcc.mul
                0x00000000        0x0 /usr/local/bin/../lib/gcc/avr/4.8.1/avr6/libgcc.a(_negsi2.o)
 .text.libgcc   0x00000000        0x0 /usr/local/bin/../lib/gcc/avr/4.8.1/avr6/libgcc.a(_negsi2.o)
 .text.libgcc.prologue
                0x00000000        0x0 /usr/local/bin/../lib/gcc/avr/4.8.1/avr6/libgcc.a(_negsi2.o)
 .text.libgcc.builtins
                0x00000000        0x0 /usr/local/bin/../lib/gcc/avr/4.8.1/avr6/libgcc.a(_negsi2.o)
 .text.libgcc.fmul
                0x00000000        0x0 /usr/local/bin/../lib/gcc/avr/4.8.1/avr6/libgcc.a(_negsi2.o)
 .text.libgcc.fixed
                0x00000000        0x0 /usr/local/bin/../lib/gcc/avr/4.8.1/avr6/libgcc.a(_negsi2.o)
 .text          0x00000000        0x0 /usr/local/bin/../lib/gcc/avr/4.8.1/avr6/libgcc.a(_muluhisi3.o)
 .data          0x00000000        0x0 /usr/local/bin/../lib/gcc/avr/4.8.1/avr6/libgcc.a(_muluhisi3.o)
 .bss           0x00000000        0x0 /usr/local/bin/../lib/gcc/avr/4.8.1/avr6/libgcc.a(_muluhisi3.o)
 .text.libgcc.div
                0x00000000        0x0 /usr/local/bin/../lib/gcc/avr/4.8.1/avr6/libgcc.a(_muluhisi3.o)
 .text.libgcc   0x00000000        0x0 /usr/local/bin/../lib/gcc/avr/4.8.1/avr6/libgcc.a(_muluhisi3.o)
 .text.libgcc.prologue
                0x00000000        0x0 /usr/local/bin/../lib/gcc/avr/4.8.1/avr6/libgcc.a(_muluhisi3.o)
 .text.libgcc.builtins
                0x00000000        0x0 /usr/local/bin/../lib/gcc/avr/4.8.1/avr6/libgcc.a(_muluhisi3.o)
 .text.libgcc.fmul
                0x00000000        0x0 /usr/local/bin/../lib/gcc/avr/4.8.1/avr6/libgcc.a(_muluhisi3.o)
 .text.libgcc.fixed
                0x00000000        0x0 /usr/local/bin/../lib/gcc/avr/4.8.1/avr6/libgcc.a(_muluhisi3.o)
 .text          0x00000000        0x0 /usr/local/bin/../lib/gcc/avr/4.8.1/avr6/libgcc.a(_mulshisi3.o)
 .data          0x00000000        0x0 /usr/local/bin/../lib/gcc/avr/4.8.1/avr6/libgcc.a(_mulshisi3.o)
 .bss           0x00000000        0x0 /usr/local/bin/../lib/gcc/avr/4.8.1/avr6/libgcc.a(_mulshisi3.o)
 .text.libgcc.div
                0x00000000        0x0 /usr/local/bin/../lib/gcc/avr/4.8.1/avr6/libgcc.a(_mulshisi3.o)
 .text.libgcc   0x00000000        0x0 /usr/local/bin/../lib/gcc/avr/4.8.1/avr6/libgcc.a(_mulshisi3.o)
 .text.libgcc.prologue
                0x00000000        0x0 /usr/local/bin/../lib/gcc/avr/4.8.1/avr6/libgcc.a(_mulshisi3.o)
 .text.libgcc.builtins
                0x00000000        0x0 /usr/local/bin/../lib/gcc/avr/4.8.1/avr6/libgcc.a(_mulshisi3.o)
 .text.libgcc.fmul
                0x00000000        0x0 /usr/local/bin/../lib/gcc/avr/4.8.1/avr6/libgcc.a(_mulshisi3.o)
 .text.libgcc.fixed
                0x00000000        0x0 /usr/local/bin/../lib/gcc/avr/4.8.1/avr6/libgcc.a(_mulshisi3.o)

Memory Configuration

Name             Origin             Length             Attributes
text             0x00000000         0x00100000         xr
data             0x00800200         0x0000fe00         rw !x
eeprom           0x00810000         0x00010000         rw !x
fuse             0x00820000         0x00000400         rw !x
lock             0x00830000         0x00000400         rw !x
signature        0x00840000         0x00000400         rw !x
user_signatures  0x00850000         0x00000400         rw !x
*default*        0x00000000         0xffffffff

Linker script and memory map

Address of section .data set to 0x800200
LOAD /usr/local/bin/../lib/gcc/avr/4.8.1/../../../../avr/lib/avr6/crtm256rfr2.o
Address of section .bootloader set to 0x1f800
LOAD example-servreg-client.co
LOAD contiki-avr-atmega256rfr2.a
START GROUP
LOAD /usr/local/bin/../lib/gcc/avr/4.8.1/avr6/libgcc.a
LOAD /usr/local/bin/../lib/gcc/avr/4.8.1/../../../../avr/lib/avr6/libm.a
LOAD /usr/local/bin/../lib/gcc/avr/4.8.1/../../../../avr/lib/avr6/libc.a
END GROUP

.hash
 *(.hash)

.dynsym
 *(.dynsym)

.dynstr
 *(.dynstr)

.gnu.version
 *(.gnu.version)

.gnu.version_d
 *(.gnu.version_d)

.gnu.version_r
 *(.gnu.version_r)

.rel.init
 *(.rel.init)

.rela.init
 *(.rela.init)

.rel.text
 *(.rel.text)
 *(.rel.text.*)
 *(.rel.gnu.linkonce.t*)

.rela.text
 *(.rela.text)
 *(.rela.text.*)
 *(.rela.gnu.linkonce.t*)

.rel.fini
 *(.rel.fini)

.rela.fini
 *(.rela.fini)

.rel.rodata
 *(.rel.rodata)
 *(.rel.rodata.*)
 *(.rel.gnu.linkonce.r*)

.rela.rodata
 *(.rela.rodata)
 *(.rela.rodata.*)
 *(.rela.gnu.linkonce.r*)

.rel.data
 *(.rel.data)
 *(.rel.data.*)
 *(.rel.gnu.linkonce.d*)

.rela.data
 *(.rela.data)
 *(.rela.data.*)
 *(.rela.gnu.linkonce.d*)

.rel.ctors
 *(.rel.ctors)

.rela.ctors
 *(.rela.ctors)

.rel.dtors
 *(.rel.dtors)

.rela.dtors
 *(.rela.dtors)

.rel.got
 *(.rel.got)

.rela.got
 *(.rela.got)

.rel.bss
 *(.rel.bss)

.rela.bss
 *(.rela.bss)

.rel.plt
 *(.rel.plt)

.rela.plt
 *(.rela.plt)

.text           0x00000000     0xc52e
 *(.vectors)
 .vectors       0x00000000      0x134 /usr/local/bin/../lib/gcc/avr/4.8.1/../../../../avr/lib/avr6/crtm256rfr2.o
                0x00000000                __vectors
                0x00000000                __vector_default
 *(.vectors)
 *(.progmem.gcc*)
 .progmem.gcc_sw_table.uip_process
                0x00000134       0x10 contiki-avr-atmega256rfr2.a(uip6.o)
                0x00000144                . = ALIGN (0x2)
                0x00000144                __trampolines_start = .
 *(.trampolines)
 .trampolines   0x00000144      0x130 linker stubs
 *(.trampolines*)
                0x00000274                __trampolines_end = .
 *(.progmem*)
 .progmem.data.__c.4684
                0x00000274        0x3 contiki-avr-atmega256rfr2.a(contiki-main.o)
 .progmem.data.__c.4682
                0x00000277        0x2 contiki-avr-atmega256rfr2.a(contiki-main.o)
 .progmem.data.__c.4680
                0x00000279        0x3 contiki-avr-atmega256rfr2.a(contiki-main.o)
 .progmem.data.__c.4734
                0x0000027c       0x1d contiki-avr-atmega256rfr2.a(contiki-main.o)
 .progmem.data.__c.4729
                0x00000299        0xc contiki-avr-atmega256rfr2.a(contiki-main.o)
 .progmem.data.__c.4727
                0x000002a5        0x9 contiki-avr-atmega256rfr2.a(contiki-main.o)
 .progmem.data.__c.4722
                0x000002ae        0x8 contiki-avr-atmega256rfr2.a(contiki-main.o)
 .progmem.data.__c.4720
                0x000002b6        0xa contiki-avr-atmega256rfr2.a(contiki-main.o)
 .progmem.data.__c.4718
                0x000002c0       0x12 contiki-avr-atmega256rfr2.a(contiki-main.o)
 .progmem.data.__c.4715
                0x000002d2       0x12 contiki-avr-atmega256rfr2.a(contiki-main.o)
 .progmem.data.__c.4710
                0x000002e4        0x2 contiki-avr-atmega256rfr2.a(contiki-main.o)
 .progmem.data.__c.4708
                0x000002e6       0x15 contiki-avr-atmega256rfr2.a(contiki-main.o)
 .progmem.data.__c.4703
                0x000002fb        0x2 contiki-avr-atmega256rfr2.a(contiki-main.o)
 .progmem.data.__c.4701
                0x000002fd       0x15 contiki-avr-atmega256rfr2.a(contiki-main.o)
 .progmem.data.__c.4672
                0x00000312        0x8 contiki-avr-atmega256rfr2.a(contiki-main.o)
 .progmem.data.__c.4665
                0x0000031a       0x11 contiki-avr-atmega256rfr2.a(contiki-main.o)
 .progmem.data.__c.4663
                0x0000032b        0xd contiki-avr-atmega256rfr2.a(contiki-main.o)
 .progmem.data.__c.4661
                0x00000338       0x32 contiki-avr-atmega256rfr2.a(contiki-main.o)
 .progmem.data.__c.4659
                0x0000036a       0x25 contiki-avr-atmega256rfr2.a(contiki-main.o)
 .progmem.data.__c.4657
                0x0000038f       0x20 contiki-avr-atmega256rfr2.a(contiki-main.o)
 .progmem.data.__c.4654
                0x000003af       0x1b contiki-avr-atmega256rfr2.a(contiki-main.o)
 .progmem.data.__c.4647
                0x000003ca        0xd contiki-avr-atmega256rfr2.a(contiki-main.o)
 .progmem.data.__c.4645
                0x000003d7       0x11 contiki-avr-atmega256rfr2.a(contiki-main.o)
 .progmem.data.__c.4643
                0x000003e8       0x11 contiki-avr-atmega256rfr2.a(contiki-main.o)
 .progmem.data.__c.4641
                0x000003f9       0x11 contiki-avr-atmega256rfr2.a(contiki-main.o)
 .progmem.data.__c.4639
                0x0000040a       0x11 contiki-avr-atmega256rfr2.a(contiki-main.o)
 .progmem.data.__c.4634
                0x0000041b        0xf contiki-avr-atmega256rfr2.a(contiki-main.o)
 .progmem.data.__c.4413
                0x0000042a       0x2d contiki-avr-atmega256rfr2.a(params.o)
 .progmem.data.default_domain_name
                0x00000457        0xa contiki-avr-atmega256rfr2.a(params.o)
                0x00000457                default_domain_name
 .progmem.data.default_server_name
                0x00000461        0xe contiki-avr-atmega256rfr2.a(params.o)
                0x00000461                default_server_name
 .progmem.data.default_mac_address
                0x0000046f        0x8 contiki-avr-atmega256rfr2.a(params.o)
                0x0000046f                default_mac_address
 .progmem.data.__c.3506
                0x00000477       0x6f contiki-avr-atmega256rfr2.a(print-stats.o)
 .progmem.data.__c.2435
                0x000004e6        0x3 contiki-avr-atmega256rfr2.a(uip-debug.o)
 .progmem.data.__c.2433
                0x000004e9        0x2 contiki-avr-atmega256rfr2.a(uip-debug.o)
 .progmem.data.__c.2431
                0x000004eb        0x3 contiki-avr-atmega256rfr2.a(uip-debug.o)
                0x000004ee                . = ALIGN (0x2)
 *(.jumptables)
 *(.jumptables*)
 *(.lowtext)
 *(.lowtext*)
                0x000004ee                __ctors_start = .
 *(.ctors)
                0x000004ee                __ctors_end = .
                0x000004ee                __dtors_start = .
 *(.dtors)
                0x000004ee                __dtors_end = .
 SORT(*)(.ctors)
 SORT(*)(.dtors)
 *(.init0)
 .init0         0x000004ee        0x0 /usr/local/bin/../lib/gcc/avr/4.8.1/../../../../avr/lib/avr6/crtm256rfr2.o
                0x000004ee                __init
 *(.init0)
 *(.init1)
 *(.init1)
 *(.init2)
 .init2         0x000004ee       0x10 /usr/local/bin/../lib/gcc/avr/4.8.1/../../../../avr/lib/avr6/crtm256rfr2.o
 *(.init2)
 *(.init3)
 *(.init3)
 *(.init4)
 .init4         0x000004fe       0x1a /usr/local/bin/../lib/gcc/avr/4.8.1/avr6/libgcc.a(_copy_data.o)
                0x000004fe                __do_copy_data
 .init4         0x00000518       0x10 /usr/local/bin/../lib/gcc/avr/4.8.1/avr6/libgcc.a(_clear_bss.o)
                0x00000518                __do_clear_bss
 *(.init4)
 *(.init5)
 *(.init5)
 *(.init6)
 *(.init6)
 *(.init7)
 *(.init7)
 *(.init8)
 *(.init8)
 *(.init9)
 .init9         0x00000528        0x8 /usr/local/bin/../lib/gcc/avr/4.8.1/../../../../avr/lib/avr6/crtm256rfr2.o
 *(.init9)
 *(.text)
 .text          0x00000530        0x4 /usr/local/bin/../lib/gcc/avr/4.8.1/../../../../avr/lib/avr6/crtm256rfr2.o
                0x00000530                __vector_38
                0x00000530                __vector_22
                0x00000530                __vector_28
                0x00000530                __vector_67
                0x00000530                __vector_1
                0x00000530                __vector_75
                0x00000530                __vector_71
                0x00000530                __vector_34
                0x00000530                __vector_24
                0x00000530                __vector_12
                0x00000530                __vector_55
                0x00000530                __vector_69
                0x00000530                __vector_46
                0x00000530                __bad_interrupt
                0x00000530                __vector_72
                0x00000530                __vector_6
                0x00000530                __vector_31
                0x00000530                __vector_35
                0x00000530                __vector_74
                0x00000530                __vector_39
                0x00000530                __vector_3
                0x00000530                __vector_23
                0x00000530                __vector_68
                0x00000530                __vector_30
                0x00000530                __vector_73
                0x00000530                __vector_45
                0x00000530                __vector_11
                0x00000530                __vector_54
                0x00000530                __vector_13
                0x00000530                __vector_17
                0x00000530                __vector_19
                0x00000530                __vector_56
                0x00000530                __vector_7
                0x00000530                __vector_49
                0x00000530                __vector_41
                0x00000530                __vector_43
                0x00000530                __vector_27
                0x00000530                __vector_5
                0x00000530                __vector_33
                0x00000530                __vector_76
                0x00000530                __vector_47
                0x00000530                __vector_52
                0x00000530                __vector_37
                0x00000530                __vector_4
                0x00000530                __vector_44
                0x00000530                __vector_51
                0x00000530                __vector_9
                0x00000530                __vector_2
                0x00000530                __vector_15
                0x00000530                __vector_66
                0x00000530                __vector_70
                0x00000530                __vector_29
                0x00000530                __vector_40
                0x00000530                __vector_8
                0x00000530                __vector_26
                0x00000530                __vector_48
                0x00000530                __vector_14
                0x00000530                __vector_53
                0x00000530                __vector_10
                0x00000530                __vector_50
                0x00000530                __vector_16
                0x00000530                __vector_18
                0x00000530                __vector_20
                0x00000530                __vector_42
                0x00000530                __vector_65
                0x00000534                . = ALIGN (0x2)
 *(.text.*)
 .text.process_thread_example_servreg_client_process
                0x00000534       0xfe example-servreg-client.co
 .text.purge_registrations
                0x00000632       0x88 contiki-avr-atmega256rfr2.a(servreg-hack.o)
 .text.servreg_hack_init
                0x000006ba       0x34 contiki-avr-atmega256rfr2.a(servreg-hack.o)
                0x000006ba                servreg_hack_init
 .text.servreg_hack_list_head
                0x000006ee        0xc contiki-avr-atmega256rfr2.a(servreg-hack.o)
                0x000006ee                servreg_hack_list_head
 .text.process_thread_servreg_hack_process
                0x000006fa      0x2b8 contiki-avr-atmega256rfr2.a(servreg-hack.o)
 .text.servreg_hack_item_id
                0x000009b2        0x6 contiki-avr-atmega256rfr2.a(servreg-hack.o)
                0x000009b2                servreg_hack_item_id
 .text.servreg_hack_item_address
                0x000009b8        0x4 contiki-avr-atmega256rfr2.a(servreg-hack.o)
                0x000009b8                servreg_hack_item_address
 .text.ipaddr_add
                0x000009bc       0xc6 contiki-avr-atmega256rfr2.a(contiki-main.o)
 .text.rng_get_uint8
                0x00000a82       0x46 contiki-avr-atmega256rfr2.a(contiki-main.o)
                0x00000a82                rng_get_uint8
 .text.initialize
                0x00000ac8      0x2fc contiki-avr-atmega256rfr2.a(contiki-main.o)
                0x00000ac8                initialize
 .text.startup.main
                0x00000dc4      0x240 contiki-avr-atmega256rfr2.a(contiki-main.o)
                0x00000dc4                main
 .text.params_get_channel
                0x00001004      0x10c contiki-avr-atmega256rfr2.a(params.o)
                0x00001004                params_get_channel
 .text.params_get_eui64
                0x00001110       0x14 contiki-avr-atmega256rfr2.a(params.o)
                0x00001110                params_get_eui64
 .text.params_get_panid
                0x00001124        0x8 contiki-avr-atmega256rfr2.a(params.o)
                0x00001124                params_get_panid
 .text.params_get_panaddr
                0x0000112c        0x8 contiki-avr-atmega256rfr2.a(params.o)
                0x0000112c                params_get_panaddr
 .text.params_get_txpower
                0x00001134        0x8 contiki-avr-atmega256rfr2.a(params.o)
                0x00001134                params_get_txpower
 .text.ssd1306_reset_clear
                0x0000113c        0x6 contiki-avr-atmega256rfr2.a(ssd1306.o)
                0x0000113c                ssd1306_reset_clear
 .text.ssd1306_reset_set
                0x00001142        0x6 contiki-avr-atmega256rfr2.a(ssd1306.o)
                0x00001142                ssd1306_reset_set
 .text.ssd1306_sel_cmd
                0x00001148        0x6 contiki-avr-atmega256rfr2.a(ssd1306.o)
                0x00001148                ssd1306_sel_cmd
 .text.spi_deselect_device
                0x0000114e        0x6 contiki-avr-atmega256rfr2.a(ssd1306.o)
                0x0000114e                spi_deselect_device
 .text.spi_select_device
                0x00001154        0x6 contiki-avr-atmega256rfr2.a(ssd1306.o)
                0x00001154                spi_select_device
 .text.spi_write_single
                0x0000115a        0xa contiki-avr-atmega256rfr2.a(ssd1306.o)
                0x0000115a                spi_write_single
 .text.ssd1306_write_command
                0x00001164       0x2c contiki-avr-atmega256rfr2.a(ssd1306.o)
                0x00001164                ssd1306_write_command
 .text.ssd1306_hard_reset
                0x00001190       0x18 contiki-avr-atmega256rfr2.a(ssd1306.o)
                0x00001190                ssd1306_hard_reset
 .text.ssd1306_display_on
                0x000011a8        0x6 contiki-avr-atmega256rfr2.a(ssd1306.o)
                0x000011a8                ssd1306_display_on
 .text.ssd1306_set_contrast
                0x000011ae       0x16 contiki-avr-atmega256rfr2.a(ssd1306.o)
                0x000011ae                ssd1306_set_contrast
 .text.ssd1306_display_invert_disable
                0x000011c4        0x6 contiki-avr-atmega256rfr2.a(ssd1306.o)
                0x000011c4                ssd1306_display_invert_disable
 .text.ssd1306_spi_init
                0x000011ca       0x14 contiki-avr-atmega256rfr2.a(ssd1306.o)
                0x000011ca                ssd1306_spi_init
 .text.ssd1306_interface_init
                0x000011de        0x8 contiki-avr-atmega256rfr2.a(ssd1306.o)
                0x000011de                ssd1306_interface_init
 .text.ssd1306_init
                0x000011e6       0x82 contiki-avr-atmega256rfr2.a(ssd1306.o)
                0x000011e6                ssd1306_init
 .text.clock_init
                0x00001268       0x20 contiki-avr-atmega256rfr2.a(clock.o)
                0x00001268                clock_init
 .text.clock_time
                0x00001288       0x18 contiki-avr-atmega256rfr2.a(clock.o)
                0x00001288                clock_time
 .text.clock_seconds
                0x000012a0       0x34 contiki-avr-atmega256rfr2.a(clock.o)
                0x000012a0                clock_seconds
 .text.clock_delay_usec
                0x000012d4       0x1a contiki-avr-atmega256rfr2.a(clock.o)
                0x000012d4                clock_delay_usec
 .text.__vector_21
                0x000012ee       0xe0 contiki-avr-atmega256rfr2.a(clock.o)
                0x000012ee                __vector_21
 .text.__vector_25
                0x000013ce       0x5e contiki-avr-atmega256rfr2.a(rs232.o)
                0x000013ce                __vector_25
 .text.__vector_36
                0x0000142c       0x5e contiki-avr-atmega256rfr2.a(rs232.o)
                0x0000142c                __vector_36
 .text.rs232_init
                0x0000148a       0x40 contiki-avr-atmega256rfr2.a(rs232.o)
                0x0000148a                rs232_init
 .text.rs232_send
                0x000014ca       0x24 contiki-avr-atmega256rfr2.a(rs232.o)
                0x000014ca                rs232_send
 .text.rs232_stdout_putchar
                0x000014ee       0x2a contiki-avr-atmega256rfr2.a(rs232.o)
                0x000014ee                rs232_stdout_putchar
 .text.rs232_redirect_stdout
                0x00001518       0x12 contiki-avr-atmega256rfr2.a(rs232.o)
                0x00001518                rs232_redirect_stdout
 .text.watchdog_periodic
                0x0000152a        0x4 contiki-avr-atmega256rfr2.a(watchdog.o)
                0x0000152a                watchdog_periodic
 .text.random_init
                0x0000152e        0x4 contiki-avr-atmega256rfr2.a(random.o)
                0x0000152e                random_init
 .text.random_rand
                0x00001532        0x4 contiki-avr-atmega256rfr2.a(random.o)
                0x00001532                random_rand
 .text.get_value
                0x00001536        0x6 contiki-avr-atmega256rfr2.a(rf230bb.o)
 .text.set_value
                0x0000153c        0x6 contiki-avr-atmega256rfr2.a(rf230bb.o)
 .text.get_object
                0x00001542        0x6 contiki-avr-atmega256rfr2.a(rf230bb.o)
 .text.set_object
                0x00001548        0x6 contiki-avr-atmega256rfr2.a(rf230bb.o)
 .text.rf230_pending_packet
                0x0000154e        0x8 contiki-avr-atmega256rfr2.a(rf230bb.o)
 .text.radio_reset_state_machine
                0x00001556       0x32 contiki-avr-atmega256rfr2.a(rf230bb.o)
 .text.set_txpower
                0x00001588       0x1e contiki-avr-atmega256rfr2.a(rf230bb.o)
 .text.rf230_isidle
                0x000015a6       0x2c contiki-avr-atmega256rfr2.a(rf230bb.o)
 .text.rf230_waitidle
                0x000015d2       0x12 contiki-avr-atmega256rfr2.a(rf230bb.o)
 .text.rf230_receiving_packet
                0x000015e4       0x2a contiki-avr-atmega256rfr2.a(rf230bb.o)
 .text.radio_off
                0x0000160e      0x124 contiki-avr-atmega256rfr2.a(rf230bb.o)
 .text.rf230_off
                0x00001732       0x16 contiki-avr-atmega256rfr2.a(rf230bb.o)
 .text.rf230_prepare
                0x00001748       0x32 contiki-avr-atmega256rfr2.a(rf230bb.o)
 .text.radio_get_trx_state
                0x0000177a        0xc contiki-avr-atmega256rfr2.a(rf230bb.o)
                0x0000177a                radio_get_trx_state
 .text.radio_set_trx_state
                0x00001786       0xbc contiki-avr-atmega256rfr2.a(rf230bb.o)
 .text.radio_on
                0x00001842       0x6a contiki-avr-atmega256rfr2.a(rf230bb.o)
 .text.rf230_on
                0x000018ac       0x12 contiki-avr-atmega256rfr2.a(rf230bb.o)
 .text.rf230_cca
                0x000018be      0x128 contiki-avr-atmega256rfr2.a(rf230bb.o)
 .text.rf230_warm_reset
                0x000019e6       0x3e contiki-avr-atmega256rfr2.a(rf230bb.o)
                0x000019e6                rf230_warm_reset
 .text.rf230_init
                0x00001a24       0x76 contiki-avr-atmega256rfr2.a(rf230bb.o)
                0x00001a24                rf230_init
 .text.rf230_get_channel
                0x00001a9a        0x6 contiki-avr-atmega256rfr2.a(rf230bb.o)
                0x00001a9a                rf230_get_channel
 .text.rf230_set_channel
                0x00001aa0       0x2a contiki-avr-atmega256rfr2.a(rf230bb.o)
                0x00001aa0                rf230_set_channel
 .text.rf230_set_pan_addr
                0x00001aca       0x48 contiki-avr-atmega256rfr2.a(rf230bb.o)
                0x00001aca                rf230_set_pan_addr
 .text.rf230_interrupt
                0x00001b12       0x26 contiki-avr-atmega256rfr2.a(rf230bb.o)
                0x00001b12                rf230_interrupt
 .text.rf230_read
                0x00001b38       0xce contiki-avr-atmega256rfr2.a(rf230bb.o)
 .text.process_thread_rf230_process
                0x00001c06       0x8a contiki-avr-atmega256rfr2.a(rf230bb.o)
 .text.rf230_set_txpower
                0x00001c90        0x4 contiki-avr-atmega256rfr2.a(rf230bb.o)
                0x00001c90                rf230_set_txpower
 .text.rf230_get_txpower
                0x00001c94       0x18 contiki-avr-atmega256rfr2.a(rf230bb.o)
                0x00001c94                rf230_get_txpower
 .text.rf230_transmit
                0x00001cac      0x260 contiki-avr-atmega256rfr2.a(rf230bb.o)
 .text.rf230_send
                0x00001f0c       0x32 contiki-avr-atmega256rfr2.a(rf230bb.o)
 .text.hal_init
                0x00001f3e        0x2 contiki-avr-atmega256rfr2.a(halbb.o)
                0x00001f3e                hal_init
 .text.hal_subregister_read
                0x00001f40       0x14 contiki-avr-atmega256rfr2.a(halbb.o)
                0x00001f40                hal_subregister_read
 .text.hal_subregister_write
                0x00001f54       0x36 contiki-avr-atmega256rfr2.a(halbb.o)
                0x00001f54                hal_subregister_write
 .text.hal_frame_read
                0x00001f8a       0x54 contiki-avr-atmega256rfr2.a(halbb.o)
                0x00001f8a                hal_frame_read
 .text.hal_frame_write
                0x00001fde       0x22 contiki-avr-atmega256rfr2.a(halbb.o)
                0x00001fde                hal_frame_write
 .text.__vector_60
                0x00002000       0x80 contiki-avr-atmega256rfr2.a(halbb.o)
                0x00002000                __vector_60
 .text.__vector_59
                0x00002080       0x14 contiki-avr-atmega256rfr2.a(halbb.o)
                0x00002080                __vector_59
 .text.__vector_57
                0x00002094       0x14 contiki-avr-atmega256rfr2.a(halbb.o)
                0x00002094                __vector_57
 .text.__vector_58
                0x000020a8       0x14 contiki-avr-atmega256rfr2.a(halbb.o)
                0x000020a8                __vector_58
 .text.__vector_64
                0x000020bc       0x18 contiki-avr-atmega256rfr2.a(halbb.o)
                0x000020bc                __vector_64
 .text.__vector_63
                0x000020d4       0x18 contiki-avr-atmega256rfr2.a(halbb.o)
                0x000020d4                __vector_63
 .text.__vector_62
                0x000020ec       0x14 contiki-avr-atmega256rfr2.a(halbb.o)
                0x000020ec                __vector_62
 .text.__vector_61
                0x00002100       0x18 contiki-avr-atmega256rfr2.a(halbb.o)
                0x00002100                __vector_61
 .text.autostart_start
                0x00002118       0x1e contiki-avr-atmega256rfr2.a(autostart.o)
                0x00002118                autostart_start
 .text.process_thread_ctimer_process
                0x00002136       0xc8 contiki-avr-atmega256rfr2.a(ctimer.o)
 .text.ctimer_init
                0x000021fe       0x18 contiki-avr-atmega256rfr2.a(ctimer.o)
                0x000021fe                ctimer_init
 .text.ctimer_set
                0x00002216       0x5a contiki-avr-atmega256rfr2.a(ctimer.o)
                0x00002216                ctimer_set
 .text.ctimer_reset
                0x00002270       0x48 contiki-avr-atmega256rfr2.a(ctimer.o)
                0x00002270                ctimer_reset
 .text.ctimer_stop
                0x000022b8       0x2e contiki-avr-atmega256rfr2.a(ctimer.o)
                0x000022b8                ctimer_stop
 .text.update_time
                0x000022e6       0x64 contiki-avr-atmega256rfr2.a(etimer.o)
 .text.etimer_request_poll
                0x0000234a        0x8 contiki-avr-atmega256rfr2.a(etimer.o)
                0x0000234a                etimer_request_poll
 .text.process_thread_etimer_process
                0x00002352      0x106 contiki-avr-atmega256rfr2.a(etimer.o)
 .text.add_timer
                0x00002458       0x5e contiki-avr-atmega256rfr2.a(etimer.o)
 .text.etimer_set
                0x000024b6       0x14 contiki-avr-atmega256rfr2.a(etimer.o)
                0x000024b6                etimer_set
 .text.etimer_reset
                0x000024ca       0x14 contiki-avr-atmega256rfr2.a(etimer.o)
                0x000024ca                etimer_reset
 .text.etimer_restart
                0x000024de       0x14 contiki-avr-atmega256rfr2.a(etimer.o)
                0x000024de                etimer_restart
 .text.etimer_expired
                0x000024f2       0x16 contiki-avr-atmega256rfr2.a(etimer.o)
                0x000024f2                etimer_expired
 .text.etimer_expiration_time
                0x00002508       0x10 contiki-avr-atmega256rfr2.a(etimer.o)
                0x00002508                etimer_expiration_time
 .text.etimer_pending
                0x00002518       0x16 contiki-avr-atmega256rfr2.a(etimer.o)
                0x00002518                etimer_pending
 .text.etimer_stop
                0x0000252e       0x4e contiki-avr-atmega256rfr2.a(etimer.o)
                0x0000252e                etimer_stop
 .text.call_process.part.0
                0x0000257c       0x4e contiki-avr-atmega256rfr2.a(process.o)
 .text.call_process
                0x000025ca        0xc contiki-avr-atmega256rfr2.a(process.o)
 .text.exit_process
                0x000025d6       0xd8 contiki-avr-atmega256rfr2.a(process.o)
 .text.do_poll  0x000026ae       0x3e contiki-avr-atmega256rfr2.a(process.o)
 .text.process_alloc_event
                0x000026ec        0xe contiki-avr-atmega256rfr2.a(process.o)
                0x000026ec                process_alloc_event
 .text.process_init
                0x000026fa       0x20 contiki-avr-atmega256rfr2.a(process.o)
                0x000026fa                process_init
 .text.process_run
                0x0000271a       0xc6 contiki-avr-atmega256rfr2.a(process.o)
                0x0000271a                process_run
 .text.process_post
                0x000027e0       0x3c contiki-avr-atmega256rfr2.a(process.o)
                0x000027e0                process_post
 .text.process_post_synch
                0x0000281c       0x1e contiki-avr-atmega256rfr2.a(process.o)
                0x0000281c                process_post_synch
 .text.process_start
                0x0000283a       0x42 contiki-avr-atmega256rfr2.a(process.o)
                0x0000283a                process_start
 .text.process_poll
                0x0000287c       0x18 contiki-avr-atmega256rfr2.a(process.o)
                0x0000287c                process_poll
 .text.rtimer_init
                0x00002894        0x4 contiki-avr-atmega256rfr2.a(rtimer.o)
                0x00002894                rtimer_init
 .text.rtimer_run_next
                0x00002898       0x3e contiki-avr-atmega256rfr2.a(rtimer.o)
                0x00002898                rtimer_run_next
 .text.timer_set
                0x000028d6       0x18 contiki-avr-atmega256rfr2.a(timer.o)
                0x000028d6                timer_set
 .text.timer_reset
                0x000028ee       0x14 contiki-avr-atmega256rfr2.a(timer.o)
                0x000028ee                timer_reset
 .text.timer_restart
                0x00002902       0x14 contiki-avr-atmega256rfr2.a(timer.o)
                0x00002902                timer_restart
 .text.timer_expired
                0x00002916       0x30 contiki-avr-atmega256rfr2.a(timer.o)
                0x00002916                timer_expired
 .text.list_init
                0x00002946        0x8 contiki-avr-atmega256rfr2.a(list.o)
                0x00002946                list_init
 .text.list_head
                0x0000294e        0x8 contiki-avr-atmega256rfr2.a(list.o)
                0x0000294e                list_head
 .text.list_tail
                0x00002956       0x20 contiki-avr-atmega256rfr2.a(list.o)
                0x00002956                list_tail
 .text.list_remove
                0x00002976       0x36 contiki-avr-atmega256rfr2.a(list.o)
                0x00002976                list_remove
 .text.list_add
                0x000029ac       0x32 contiki-avr-atmega256rfr2.a(list.o)
                0x000029ac                list_add
 .text.list_push
                0x000029de       0x28 contiki-avr-atmega256rfr2.a(list.o)
                0x000029de                list_push
 .text.list_length
                0x00002a06       0x1a contiki-avr-atmega256rfr2.a(list.o)
                0x00002a06                list_length
 .text.list_item_next
                0x00002a20       0x12 contiki-avr-atmega256rfr2.a(list.o)
                0x00002a20                list_item_next
 .text.memb_init
                0x00002a32       0x3c contiki-avr-atmega256rfr2.a(memb.o)
                0x00002a32                memb_init
 .text.memb_alloc
                0x00002a6e       0x4a contiki-avr-atmega256rfr2.a(memb.o)
                0x00002a6e                memb_alloc
 .text.memb_free
                0x00002ab8       0x4a contiki-avr-atmega256rfr2.a(memb.o)
                0x00002ab8                memb_free
 .text.memb_inmemb
                0x00002b02       0x3a contiki-avr-atmega256rfr2.a(memb.o)
                0x00002b02                memb_inmemb
 .text.memb_numfree
                0x00002b3c       0x34 contiki-avr-atmega256rfr2.a(memb.o)
                0x00002b3c                memb_numfree
 .text.print_stats
                0x00002b70      0x1c0 contiki-avr-atmega256rfr2.a(print-stats.o)
                0x00002b70                print_stats
 .text.chksum   0x00002d30       0x4a contiki-avr-atmega256rfr2.a(uip6.o)
 .text.upper_layer_chksum
                0x00002d7a       0x74 contiki-avr-atmega256rfr2.a(uip6.o)
 .text.ext_hdr_options_process
                0x00002dee       0xd4 contiki-avr-atmega256rfr2.a(uip6.o)
 .text.uip_add32
                0x00002ec2       0x6e contiki-avr-atmega256rfr2.a(uip6.o)
                0x00002ec2                uip_add32
 .text.unlikely.uip_add_rcv_nxt
                0x00002f30       0x34 contiki-avr-atmega256rfr2.a(uip6.o)
 .text.uip_icmp6chksum
                0x00002f64        0x6 contiki-avr-atmega256rfr2.a(uip6.o)
                0x00002f64                uip_icmp6chksum
 .text.uip_tcpchksum
                0x00002f6a        0x6 contiki-avr-atmega256rfr2.a(uip6.o)
                0x00002f6a                uip_tcpchksum
 .text.uip_udpchksum
                0x00002f70        0x6 contiki-avr-atmega256rfr2.a(uip6.o)
                0x00002f70                uip_udpchksum
 .text.uip_init
                0x00002f76       0x64 contiki-avr-atmega256rfr2.a(uip6.o)
                0x00002f76                uip_init
 .text.remove_ext_hdr
                0x00002fda       0x6c contiki-avr-atmega256rfr2.a(uip6.o)
                0x00002fda                remove_ext_hdr
 .text.uip_udp_new
                0x00003046       0xbc contiki-avr-atmega256rfr2.a(uip6.o)
                0x00003046                uip_udp_new
 .text.uip_unlisten
                0x00003102       0x34 contiki-avr-atmega256rfr2.a(uip6.o)
                0x00003102                uip_unlisten
 .text.uip_process
                0x00003136     0x110c contiki-avr-atmega256rfr2.a(uip6.o)
                0x00003136                uip_process
 .text.uip_htonl
                0x00004242        0x6 contiki-avr-atmega256rfr2.a(uip6.o)
                0x00004242                uip_htonl
 .text.uip_ds6_list_loop
                0x00004248       0x96 contiki-avr-atmega256rfr2.a(uip-ds6.o)
                0x00004248                uip_ds6_list_loop
 .text.uip_ds6_prefix_add
                0x000042de       0xb6 contiki-avr-atmega256rfr2.a(uip-ds6.o)
                0x000042de                uip_ds6_prefix_add
 .text.uip_ds6_is_addr_onlink
                0x00004394       0x60 contiki-avr-atmega256rfr2.a(uip-ds6.o)
                0x00004394                uip_ds6_is_addr_onlink
 .text.uip_ds6_addr_lookup
                0x000043f4       0x3a contiki-avr-atmega256rfr2.a(uip-ds6.o)
                0x000043f4                uip_ds6_addr_lookup
 .text.uip_ds6_get_link_local
                0x0000442e       0x5a contiki-avr-atmega256rfr2.a(uip-ds6.o)
                0x0000442e                uip_ds6_get_link_local
 .text.uip_ds6_maddr_add
                0x00004488       0x64 contiki-avr-atmega256rfr2.a(uip-ds6.o)
                0x00004488                uip_ds6_maddr_add
 .text.uip_ds6_addr_add
                0x000044ec      0x104 contiki-avr-atmega256rfr2.a(uip-ds6.o)
                0x000044ec                uip_ds6_addr_add
 .text.uip_ds6_maddr_rm
                0x000045f0        0xa contiki-avr-atmega256rfr2.a(uip-ds6.o)
                0x000045f0                uip_ds6_maddr_rm
 .text.uip_ds6_maddr_lookup
                0x000045fa       0x3a contiki-avr-atmega256rfr2.a(uip-ds6.o)
                0x000045fa                uip_ds6_maddr_lookup
 .text.uip_ds6_addr_rm
                0x00004634       0x76 contiki-avr-atmega256rfr2.a(uip-ds6.o)
                0x00004634                uip_ds6_addr_rm
 .text.uip_ds6_periodic
                0x000046aa       0x5c contiki-avr-atmega256rfr2.a(uip-ds6.o)
                0x000046aa                uip_ds6_periodic
 .text.uip_ds6_set_addr_iid
                0x00004706       0x1c contiki-avr-atmega256rfr2.a(uip-ds6.o)
                0x00004706                uip_ds6_set_addr_iid
 .text.get_match_length
                0x00004722       0x2a contiki-avr-atmega256rfr2.a(uip-ds6.o)
                0x00004722                get_match_length
 .text.uip_ds6_select_src
                0x0000474c       0xdc contiki-avr-atmega256rfr2.a(uip-ds6.o)
                0x0000474c                uip_ds6_select_src
 .text.uip_ds6_compute_reachable_time
                0x00004828       0x58 contiki-avr-atmega256rfr2.a(uip-ds6.o)
                0x00004828                uip_ds6_compute_reachable_time
 .text.uip_ds6_init
                0x00004880      0x1e2 contiki-avr-atmega256rfr2.a(uip-ds6.o)
                0x00004880                uip_ds6_init
 .text.uip_ds6_nbr_rm
                0x00004a62       0x2e contiki-avr-atmega256rfr2.a(uip-ds6-nbr.o)
                0x00004a62                uip_ds6_nbr_rm
 .text.uip_ds6_neighbors_init
                0x00004a90       0x10 contiki-avr-atmega256rfr2.a(uip-ds6-nbr.o)
                0x00004a90                uip_ds6_neighbors_init
 .text.uip_ds6_nbr_add
                0x00004aa0       0x86 contiki-avr-atmega256rfr2.a(uip-ds6-nbr.o)
                0x00004aa0                uip_ds6_nbr_add
 .text.uip_ds6_nbr_get_ll
                0x00004b26        0xe contiki-avr-atmega256rfr2.a(uip-ds6-nbr.o)
                0x00004b26                uip_ds6_nbr_get_ll
 .text.uip_ds6_nbr_lookup
                0x00004b34       0x56 contiki-avr-atmega256rfr2.a(uip-ds6-nbr.o)
                0x00004b34                uip_ds6_nbr_lookup
 .text.uip_ds6_nbr_ll_lookup
                0x00004b8a        0xe contiki-avr-atmega256rfr2.a(uip-ds6-nbr.o)
                0x00004b8a                uip_ds6_nbr_ll_lookup
 .text.uip_ds6_nbr_ipaddr_from_lladdr
                0x00004b98        0x4 contiki-avr-atmega256rfr2.a(uip-ds6-nbr.o)
                0x00004b98                uip_ds6_nbr_ipaddr_from_lladdr
 .text.uip_ds6_nbr_lladdr_from_ipaddr
                0x00004b9c       0x12 contiki-avr-atmega256rfr2.a(uip-ds6-nbr.o)
                0x00004b9c                uip_ds6_nbr_lladdr_from_ipaddr
 .text.uip_ds6_link_neighbor_callback
                0x00004bae       0x48 contiki-avr-atmega256rfr2.a(uip-ds6-nbr.o)
                0x00004bae                uip_ds6_link_neighbor_callback
 .text.uip_ds6_neighbor_periodic
                0x00004bf6      0x17a contiki-avr-atmega256rfr2.a(uip-ds6-nbr.o)
                0x00004bf6                uip_ds6_neighbor_periodic
 .text.call_route_callback
                0x00004d70       0x64 contiki-avr-atmega256rfr2.a(uip-ds6-route.o)
 .text.uip_ds6_route_init
                0x00004dd4       0x34 contiki-avr-atmega256rfr2.a(uip-ds6-route.o)
                0x00004dd4                uip_ds6_route_init
 .text.uip_ds6_route_nexthop
                0x00004e08       0x1c contiki-avr-atmega256rfr2.a(uip-ds6-route.o)
                0x00004e08                uip_ds6_route_nexthop
 .text.uip_ds6_route_head
                0x00004e24        0x8 contiki-avr-atmega256rfr2.a(uip-ds6-route.o)
                0x00004e24                uip_ds6_route_head
 .text.uip_ds6_route_next
                0x00004e2c        0xe contiki-avr-atmega256rfr2.a(uip-ds6-route.o)
                0x00004e2c                uip_ds6_route_next
 .text.uip_ds6_route_lookup
                0x00004e3a       0x96 contiki-avr-atmega256rfr2.a(uip-ds6-route.o)
                0x00004e3a                uip_ds6_route_lookup
 .text.uip_ds6_route_rm
                0x00004ed0       0xce contiki-avr-atmega256rfr2.a(uip-ds6-route.o)
                0x00004ed0                uip_ds6_route_rm
 .text.rm_routelist
                0x00004f9e       0x3e contiki-avr-atmega256rfr2.a(uip-ds6-route.o)
 .text.rm_routelist_callback
                0x00004fdc        0x4 contiki-avr-atmega256rfr2.a(uip-ds6-route.o)
 .text.uip_ds6_route_add
                0x00004fe0      0x142 contiki-avr-atmega256rfr2.a(uip-ds6-route.o)
                0x00004fe0                uip_ds6_route_add
 .text.uip_ds6_defrt_rm
                0x00005122       0x5c contiki-avr-atmega256rfr2.a(uip-ds6-route.o)
                0x00005122                uip_ds6_defrt_rm
 .text.uip_ds6_defrt_lookup
                0x0000517e       0x44 contiki-avr-atmega256rfr2.a(uip-ds6-route.o)
                0x0000517e                uip_ds6_defrt_lookup
 .text.uip_ds6_defrt_add
                0x000051c2       0x8c contiki-avr-atmega256rfr2.a(uip-ds6-route.o)
                0x000051c2                uip_ds6_defrt_add
 .text.uip_ds6_defrt_choose
                0x0000524e       0x48 contiki-avr-atmega256rfr2.a(uip-ds6-route.o)
                0x0000524e                uip_ds6_defrt_choose
 .text.uip_ds6_defrt_periodic
                0x00005296       0x3a contiki-avr-atmega256rfr2.a(uip-ds6-route.o)
                0x00005296                uip_ds6_defrt_periodic
 .text.echo_reply_input
                0x000052d0      0x15a contiki-avr-atmega256rfr2.a(uip-icmp6.o)
 .text.echo_request_input
                0x0000542a      0x14a contiki-avr-atmega256rfr2.a(uip-icmp6.o)
 .text.uip_icmp6_input
                0x00005574       0x4e contiki-avr-atmega256rfr2.a(uip-icmp6.o)
                0x00005574                uip_icmp6_input
 .text.uip_icmp6_register_input_handler
                0x000055c2        0xa contiki-avr-atmega256rfr2.a(uip-icmp6.o)
                0x000055c2                uip_icmp6_register_input_handler
 .text.uip_icmp6_error_output
                0x000055cc      0x1cc contiki-avr-atmega256rfr2.a(uip-icmp6.o)
                0x000055cc                uip_icmp6_error_output
 .text.uip_icmp6_send
                0x00005798       0xb0 contiki-avr-atmega256rfr2.a(uip-icmp6.o)
                0x00005798                uip_icmp6_send
 .text.uip_icmp6_init
                0x00005848       0x10 contiki-avr-atmega256rfr2.a(uip-icmp6.o)
                0x00005848                uip_icmp6_init
 .text.na_input
                0x00005858      0x28e contiki-avr-atmega256rfr2.a(uip-nd6.o)
 .text.ns_input
                0x00005ae6      0x360 contiki-avr-atmega256rfr2.a(uip-nd6.o)
 .text.uip_nd6_ns_output
                0x00005e46      0x200 contiki-avr-atmega256rfr2.a(uip-nd6.o)
                0x00005e46                uip_nd6_ns_output
 .text.uip_nd6_init
                0x00006046       0x10 contiki-avr-atmega256rfr2.a(uip-nd6.o)
                0x00006046                uip_nd6_init
 .text.start_periodic_tcp_timer
                0x00006056       0x16 contiki-avr-atmega256rfr2.a(tcpip.o)
 .text.tcpip_output
                0x0000606c       0x12 contiki-avr-atmega256rfr2.a(tcpip.o)
                0x0000606c                tcpip_output
 .text.tcpip_set_outputfunc
                0x0000607e        0xa contiki-avr-atmega256rfr2.a(tcpip.o)
                0x0000607e                tcpip_set_outputfunc
 .text.udp_new  0x00006088       0x26 contiki-avr-atmega256rfr2.a(tcpip.o)
                0x00006088                udp_new
 .text.udp_broadcast_new
                0x000060ae       0x6e contiki-avr-atmega256rfr2.a(tcpip.o)
                0x000060ae                udp_broadcast_new
 .text.tcpip_icmp6_call
                0x0000611c       0x2e contiki-avr-atmega256rfr2.a(tcpip.o)
                0x0000611c                tcpip_icmp6_call
 .text.tcpip_input
                0x0000614a       0x1c contiki-avr-atmega256rfr2.a(tcpip.o)
                0x0000614a                tcpip_input
 .text.tcpip_ipv6_output
                0x00006166      0x274 contiki-avr-atmega256rfr2.a(tcpip.o)
                0x00006166                tcpip_ipv6_output
 .text.process_thread_tcpip_process
                0x000063da      0x218 contiki-avr-atmega256rfr2.a(tcpip.o)
 .text.tcpip_uipcall
                0x000065f2       0x8a contiki-avr-atmega256rfr2.a(tcpip.o)
                0x000065f2                tcpip_uipcall
 .text.uip_debug_ipaddr_print
                0x0000667c       0xe6 contiki-avr-atmega256rfr2.a(uip-debug.o)
                0x0000667c                uip_debug_ipaddr_print
 .text.packet_timedout
                0x00006762       0x1c contiki-avr-atmega256rfr2.a(uip-packetqueue)
 .text.uip_packetqueue_new
                0x0000677e        0x8 contiki-avr-atmega256rfr2.a(uip-packetqueue)
                0x0000677e                uip_packetqueue_new
 .text.uip_packetqueue_alloc
                0x00006786       0x5e contiki-avr-atmega256rfr2.a(uip-packetqueue)
                0x00006786                uip_packetqueue_alloc
 .text.uip_packetqueue_free
                0x000067e4       0x2c contiki-avr-atmega256rfr2.a(uip-packetqueue)
                0x000067e4                uip_packetqueue_free
 .text.uip_packetqueue_buf
                0x00006810       0x14 contiki-avr-atmega256rfr2.a(uip-packetqueue)
                0x00006810                uip_packetqueue_buf
 .text.uip_packetqueue_buflen
                0x00006824       0x1c contiki-avr-atmega256rfr2.a(uip-packetqueue)
                0x00006824                uip_packetqueue_buflen
 .text.uip_packetqueue_set_buflen
                0x00006840       0x16 contiki-avr-atmega256rfr2.a(uip-packetqueue)
                0x00006840                uip_packetqueue_set_buflen
 .text.uip_split_output
                0x00006856       0xf2 contiki-avr-atmega256rfr2.a(uip-split.o)
                0x00006856                uip_split_output
 .text.uip_udp_packet_send
                0x00006948       0x40 contiki-avr-atmega256rfr2.a(uip-udp-packet.)
                0x00006948                uip_udp_packet_send
 .text.rpl_get_mode
                0x00006988        0xa contiki-avr-atmega256rfr2.a(rpl.o)
                0x00006988                rpl_get_mode
 .text.rpl_purge_routes
                0x00006992       0xca contiki-avr-atmega256rfr2.a(rpl.o)
                0x00006992                rpl_purge_routes
 .text.rpl_remove_routes
                0x00006a5c       0x2c contiki-avr-atmega256rfr2.a(rpl.o)
                0x00006a5c                rpl_remove_routes
 .text.rpl_remove_routes_by_nexthop
                0x00006a88       0x56 contiki-avr-atmega256rfr2.a(rpl.o)
                0x00006a88                rpl_remove_routes_by_nexthop
 .text.rpl_add_route
                0x00006ade       0x46 contiki-avr-atmega256rfr2.a(rpl.o)
                0x00006ade                rpl_add_route
 .text.rpl_link_neighbor_callback
                0x00006b24       0xa2 contiki-avr-atmega256rfr2.a(rpl.o)
                0x00006b24                rpl_link_neighbor_callback
 .text.rpl_ipv6_neighbor_callback
                0x00006bc6       0x28 contiki-avr-atmega256rfr2.a(rpl.o)
                0x00006bc6                rpl_ipv6_neighbor_callback
 .text.rpl_init
                0x00006bee       0x78 contiki-avr-atmega256rfr2.a(rpl.o)
                0x00006bee                rpl_init
 .text.lollipop_greater_than
                0x00006c66       0x48 contiki-avr-atmega256rfr2.a(rpl-dag.o)
 .text.rpl_set_preferred_parent
                0x00006cae       0x3e contiki-avr-atmega256rfr2.a(rpl-dag.o)
 .text.set_ip_from_prefix
                0x00006cec       0x38 contiki-avr-atmega256rfr2.a(rpl-dag.o)
 .text.check_prefix
                0x00006d24       0xb4 contiki-avr-atmega256rfr2.a(rpl-dag.o)
 .text.find_parent_any_dag_any_instance
                0x00006dd8       0x12 contiki-avr-atmega256rfr2.a(rpl-dag.o)
 .text.rpl_get_nbr
                0x00006dea       0x22 contiki-avr-atmega256rfr2.a(rpl-dag.o)
                0x00006dea                rpl_get_nbr
 .text.rpl_dag_init
                0x00006e0c        0xc contiki-avr-atmega256rfr2.a(rpl-dag.o)
                0x00006e0c                rpl_dag_init
 .text.rpl_get_parent
                0x00006e18        0xa contiki-avr-atmega256rfr2.a(rpl-dag.o)
                0x00006e18                rpl_get_parent
 .text.rpl_get_parent_ipaddr
                0x00006e22        0xe contiki-avr-atmega256rfr2.a(rpl-dag.o)
                0x00006e22                rpl_get_parent_ipaddr
 .text.rpl_set_prefix
                0x00006e30       0xb4 contiki-avr-atmega256rfr2.a(rpl-dag.o)
                0x00006e30                rpl_set_prefix
 .text.rpl_set_default_route
                0x00006ee4       0x7c contiki-avr-atmega256rfr2.a(rpl-dag.o)
                0x00006ee4                rpl_set_default_route
 .text.rpl_alloc_instance
                0x00006f60       0x2a contiki-avr-atmega256rfr2.a(rpl-dag.o)
                0x00006f60                rpl_alloc_instance
 .text.rpl_add_parent
                0x00006f8a       0x72 contiki-avr-atmega256rfr2.a(rpl-dag.o)
                0x00006f8a                rpl_add_parent
 .text.rpl_find_parent
                0x00006ffc       0x2a contiki-avr-atmega256rfr2.a(rpl-dag.o)
                0x00006ffc                rpl_find_parent
 .text.rpl_find_parent_any_dag
                0x00007026       0x36 contiki-avr-atmega256rfr2.a(rpl-dag.o)
                0x00007026                rpl_find_parent_any_dag
 .text.rpl_select_parent
                0x0000705c       0x8e contiki-avr-atmega256rfr2.a(rpl-dag.o)
                0x0000705c                rpl_select_parent
 .text.rpl_select_dag
                0x000070ea      0x248 contiki-avr-atmega256rfr2.a(rpl-dag.o)
                0x000070ea                rpl_select_dag
 .text.rpl_nullify_parent
                0x00007332       0x70 contiki-avr-atmega256rfr2.a(rpl-dag.o)
                0x00007332                rpl_nullify_parent
 .text.rpl_remove_parent
                0x000073a2       0x18 contiki-avr-atmega256rfr2.a(rpl-dag.o)
                0x000073a2                rpl_remove_parent
 .text.nbr_callback
                0x000073ba        0x4 contiki-avr-atmega256rfr2.a(rpl-dag.o)
 .text.remove_parents.constprop.4
                0x000073be       0x3e contiki-avr-atmega256rfr2.a(rpl-dag.o)
 .text.rpl_free_dag
                0x000073fc       0x34 contiki-avr-atmega256rfr2.a(rpl-dag.o)
                0x000073fc                rpl_free_dag
 .text.rpl_free_instance
                0x00007430       0x88 contiki-avr-atmega256rfr2.a(rpl-dag.o)
                0x00007430                rpl_free_instance
 .text.rpl_move_parent
                0x000074b8       0x7c contiki-avr-atmega256rfr2.a(rpl-dag.o)
                0x000074b8                rpl_move_parent
 .text.rpl_get_any_dag
                0x00007534       0x1e contiki-avr-atmega256rfr2.a(rpl-dag.o)
                0x00007534                rpl_get_any_dag
 .text.rpl_get_instance
                0x00007552       0x1c contiki-avr-atmega256rfr2.a(rpl-dag.o)
                0x00007552                rpl_get_instance
 .text.get_dag  0x0000756e       0x6a contiki-avr-atmega256rfr2.a(rpl-dag.o)
 .text.rpl_repair_root
                0x000075d8       0x52 contiki-avr-atmega256rfr2.a(rpl-dag.o)
                0x000075d8                rpl_repair_root
 .text.rpl_alloc_dag
                0x0000762a       0x5e contiki-avr-atmega256rfr2.a(rpl-dag.o)
                0x0000762a                rpl_alloc_dag
 .text.rpl_find_of
                0x00007688       0x1a contiki-avr-atmega256rfr2.a(rpl-dag.o)
                0x00007688                rpl_find_of
 .text.rpl_join_instance
                0x000076a2      0x1e4 contiki-avr-atmega256rfr2.a(rpl-dag.o)
                0x000076a2                rpl_join_instance
 .text.rpl_local_repair
                0x00007886       0x9e contiki-avr-atmega256rfr2.a(rpl-dag.o)
                0x00007886                rpl_local_repair
 .text.rpl_process_parent_event
                0x00007924       0xd8 contiki-avr-atmega256rfr2.a(rpl-dag.o)
                0x00007924                rpl_process_parent_event
 .text.rpl_add_dag
                0x000079fc      0x178 contiki-avr-atmega256rfr2.a(rpl-dag.o)
                0x000079fc                rpl_add_dag
 .text.rpl_recalculate_ranks
                0x00007b74       0x48 contiki-avr-atmega256rfr2.a(rpl-dag.o)
                0x00007b74                rpl_recalculate_ranks
 .text.rpl_process_dio
                0x00007bbc      0x40e contiki-avr-atmega256rfr2.a(rpl-dag.o)
                0x00007bbc                rpl_process_dio
 .text.rpl_lock_parent
                0x00007fca        0xa contiki-avr-atmega256rfr2.a(rpl-dag.o)
                0x00007fca                rpl_lock_parent
 .text.rpl_verify_header
                0x00007fd4       0xc6 contiki-avr-atmega256rfr2.a(rpl-ext-header.)
                0x00007fd4                rpl_verify_header
 .text.rpl_update_header_empty
                0x0000809a      0x166 contiki-avr-atmega256rfr2.a(rpl-ext-header.)
                0x0000809a                rpl_update_header_empty
 .text.rpl_update_header_final
                0x00008200       0xd4 contiki-avr-atmega256rfr2.a(rpl-ext-header.)
                0x00008200                rpl_update_header_final
 .text.rpl_invert_header
                0x000082d4       0x86 contiki-avr-atmega256rfr2.a(rpl-ext-header.)
                0x000082d4                rpl_invert_header
 .text.rpl_insert_header
                0x0000835a       0x1a contiki-avr-atmega256rfr2.a(rpl-ext-header.)
                0x0000835a                rpl_insert_header
 .text.get32    0x00008374       0x1c contiki-avr-atmega256rfr2.a(rpl-icmp6.o)
 .text.set32    0x00008390       0x10 contiki-avr-atmega256rfr2.a(rpl-icmp6.o)
 .text.get16    0x000083a0       0x10 contiki-avr-atmega256rfr2.a(rpl-icmp6.o)
 .text.set16    0x000083b0        0xc contiki-avr-atmega256rfr2.a(rpl-icmp6.o)
 .text.dao_ack_input
                0x000083bc        0xa contiki-avr-atmega256rfr2.a(rpl-icmp6.o)
 .text.dio_input
                0x000083c6      0x354 contiki-avr-atmega256rfr2.a(rpl-icmp6.o)
 .text.dis_output
                0x0000871a       0x74 contiki-avr-atmega256rfr2.a(rpl-icmp6.o)
                0x0000871a                dis_output
 .text.dio_output
                0x0000878e      0x310 contiki-avr-atmega256rfr2.a(rpl-icmp6.o)
                0x0000878e                dio_output
 .text.dis_input
                0x00008a9e       0x30 contiki-avr-atmega256rfr2.a(rpl-icmp6.o)
 .text.dao_output_target
                0x00008ace      0x11e contiki-avr-atmega256rfr2.a(rpl-icmp6.o)
                0x00008ace                dao_output_target
 .text.dao_output
                0x00008bec       0x88 contiki-avr-atmega256rfr2.a(rpl-icmp6.o)
                0x00008bec                dao_output
 .text.dao_ack_output
                0x00008c74       0x36 contiki-avr-atmega256rfr2.a(rpl-icmp6.o)
                0x00008c74                dao_ack_output
 .text.dao_input
                0x00008caa      0x35c contiki-avr-atmega256rfr2.a(rpl-icmp6.o)
 .text.rpl_icmp6_register_handlers
                0x00009006       0x20 contiki-avr-atmega256rfr2.a(rpl-icmp6.o)
                0x00009006                rpl_icmp6_register_handlers
 .text.reset    0x00009026        0x2 contiki-avr-atmega256rfr2.a(rpl-mrhof.o)
 .text.update_metric_container
                0x00009028        0x6 contiki-avr-atmega256rfr2.a(rpl-mrhof.o)
 .text.calculate_rank
                0x0000902e       0x54 contiki-avr-atmega256rfr2.a(rpl-mrhof.o)
 .text.neighbor_link_callback
                0x00009082       0xae contiki-avr-atmega256rfr2.a(rpl-mrhof.o)
 .text.best_dag
                0x00009130       0x40 contiki-avr-atmega256rfr2.a(rpl-mrhof.o)
 .text.best_parent
                0x00009170       0xa6 contiki-avr-atmega256rfr2.a(rpl-mrhof.o)
 .text.new_dio_interval
                0x00009216       0x9c contiki-avr-atmega256rfr2.a(rpl-timers.o)
 .text.handle_periodic_timer
                0x000092b2       0x46 contiki-avr-atmega256rfr2.a(rpl-timers.o)
 .text.set_dao_lifetime_timer
                0x000092f8       0x5a contiki-avr-atmega256rfr2.a(rpl-timers.o)
 .text.handle_dio_timer
                0x00009352       0xb4 contiki-avr-atmega256rfr2.a(rpl-timers.o)
 .text.schedule_dao
                0x00009406       0x80 contiki-avr-atmega256rfr2.a(rpl-timers.o)
 .text.handle_dao_timer
                0x00009486       0x7e contiki-avr-atmega256rfr2.a(rpl-timers.o)
 .text.rpl_reset_periodic_timer
                0x00009504       0x3a contiki-avr-atmega256rfr2.a(rpl-timers.o)
                0x00009504                rpl_reset_periodic_timer
 .text.rpl_reset_dio_timer
                0x0000953e       0x20 contiki-avr-atmega256rfr2.a(rpl-timers.o)
                0x0000953e                rpl_reset_dio_timer
 .text.rpl_schedule_dao
                0x0000955e        0x8 contiki-avr-atmega256rfr2.a(rpl-timers.o)
                0x0000955e                rpl_schedule_dao
 .text.send_packet
                0x00009566        0xa contiki-avr-atmega256rfr2.a(nullmac.o)
 .text.packet_input
                0x00009570        0xa contiki-avr-atmega256rfr2.a(nullmac.o)
 .text.on       0x0000957a        0xa contiki-avr-atmega256rfr2.a(nullmac.o)
 .text.off      0x00009584        0xa contiki-avr-atmega256rfr2.a(nullmac.o)
 .text.channel_check_interval
                0x0000958e        0x6 contiki-avr-atmega256rfr2.a(nullmac.o)
 .text.init     0x00009594        0x2 contiki-avr-atmega256rfr2.a(nullmac.o)
 .text.on       0x00009596        0xa contiki-avr-atmega256rfr2.a(nullrdc.o)
 .text.channel_check_interval
                0x000095a0        0x6 contiki-avr-atmega256rfr2.a(nullrdc.o)
 .text.init     0x000095a6        0x4 contiki-avr-atmega256rfr2.a(nullrdc.o)
 .text.send_one_packet
                0x000095aa       0x98 contiki-avr-atmega256rfr2.a(nullrdc.o)
 .text.send_list
                0x00009642       0x40 contiki-avr-atmega256rfr2.a(nullrdc.o)
 .text.send_packet
                0x00009682        0x4 contiki-avr-atmega256rfr2.a(nullrdc.o)
 .text.off      0x00009686       0x18 contiki-avr-atmega256rfr2.a(nullrdc.o)
 .text.packet_input
                0x0000969e       0x3c contiki-avr-atmega256rfr2.a(nullrdc.o)
 .text.linkaddr_copy
                0x000096da       0x10 contiki-avr-atmega256rfr2.a(linkaddr.o)
                0x000096da                linkaddr_copy
 .text.linkaddr_cmp
                0x000096ea       0x18 contiki-avr-atmega256rfr2.a(linkaddr.o)
                0x000096ea                linkaddr_cmp
 .text.linkaddr_set_node_addr
                0x00009702        0xa contiki-avr-atmega256rfr2.a(linkaddr.o)
                0x00009702                linkaddr_set_node_addr
 .text.index_from_key
                0x0000970c       0x32 contiki-avr-atmega256rfr2.a(nbr-table.o)
 .text.nbr_set_bit
                0x0000973e       0x66 contiki-avr-atmega256rfr2.a(nbr-table.o)
 .text.index_from_lladdr
                0x000097a4       0x5a contiki-avr-atmega256rfr2.a(nbr-table.o)
 .text.key_from_item
                0x000097fe       0x48 contiki-avr-atmega256rfr2.a(nbr-table.o)
 .text.item_from_key
                0x00009846       0x3e contiki-avr-atmega256rfr2.a(nbr-table.o)
 .text.nbr_get_bit.constprop.0
                0x00009884       0x4a contiki-avr-atmega256rfr2.a(nbr-table.o)
 .text.nbr_table_register
                0x000098ce       0x40 contiki-avr-atmega256rfr2.a(nbr-table.o)
                0x000098ce                nbr_table_register
 .text.nbr_table_next
                0x0000990e       0x3e contiki-avr-atmega256rfr2.a(nbr-table.o)
                0x0000990e                nbr_table_next
 .text.nbr_table_head
                0x0000994c       0x44 contiki-avr-atmega256rfr2.a(nbr-table.o)
                0x0000994c                nbr_table_head
 .text.nbr_table_add_lladdr
                0x00009990      0x1c0 contiki-avr-atmega256rfr2.a(nbr-table.o)
                0x00009990                nbr_table_add_lladdr
 .text.nbr_table_get_from_lladdr
                0x00009b50       0x5e contiki-avr-atmega256rfr2.a(nbr-table.o)
                0x00009b50                nbr_table_get_from_lladdr
 .text.nbr_table_remove
                0x00009bae       0x42 contiki-avr-atmega256rfr2.a(nbr-table.o)
                0x00009bae                nbr_table_remove
 .text.nbr_table_lock
                0x00009bf0       0x10 contiki-avr-atmega256rfr2.a(nbr-table.o)
                0x00009bf0                nbr_table_lock
 .text.nbr_table_unlock
                0x00009c00       0x10 contiki-avr-atmega256rfr2.a(nbr-table.o)
                0x00009c00                nbr_table_unlock
 .text.nbr_table_get_lladdr
                0x00009c10       0x12 contiki-avr-atmega256rfr2.a(nbr-table.o)
                0x00009c10                nbr_table_get_lladdr
 .text.netstack_init
                0x00009c22       0x28 contiki-avr-atmega256rfr2.a(netstack.o)
                0x00009c22                netstack_init
 .text.packetbuf_copyto_hdr
                0x00009c4a       0x24 contiki-avr-atmega256rfr2.a(packetbuf.o)
                0x00009c4a                packetbuf_copyto_hdr
 .text.packetbuf_copyto
                0x00009c6e       0x7a contiki-avr-atmega256rfr2.a(packetbuf.o)
                0x00009c6e                packetbuf_copyto
 .text.packetbuf_hdrreduce
                0x00009ce8       0x3a contiki-avr-atmega256rfr2.a(packetbuf.o)
                0x00009ce8                packetbuf_hdrreduce
 .text.packetbuf_set_datalen
                0x00009d22        0xa contiki-avr-atmega256rfr2.a(packetbuf.o)
                0x00009d22                packetbuf_set_datalen
 .text.packetbuf_dataptr
                0x00009d2c        0xe contiki-avr-atmega256rfr2.a(packetbuf.o)
                0x00009d2c                packetbuf_dataptr
 .text.packetbuf_hdrptr
                0x00009d3a        0xc contiki-avr-atmega256rfr2.a(packetbuf.o)
                0x00009d3a                packetbuf_hdrptr
 .text.packetbuf_is_reference
                0x00009d46       0x18 contiki-avr-atmega256rfr2.a(packetbuf.o)
                0x00009d46                packetbuf_is_reference
 .text.packetbuf_compact
                0x00009d5e       0x5e contiki-avr-atmega256rfr2.a(packetbuf.o)
                0x00009d5e                packetbuf_compact
 .text.packetbuf_reference_ptr
                0x00009dbc        0xa contiki-avr-atmega256rfr2.a(packetbuf.o)
                0x00009dbc                packetbuf_reference_ptr
 .text.packetbuf_datalen
                0x00009dc6        0xa contiki-avr-atmega256rfr2.a(packetbuf.o)
                0x00009dc6                packetbuf_datalen
 .text.packetbuf_hdrlen
                0x00009dd0       0x10 contiki-avr-atmega256rfr2.a(packetbuf.o)
                0x00009dd0                packetbuf_hdrlen
 .text.packetbuf_totlen
                0x00009de0       0x16 contiki-avr-atmega256rfr2.a(packetbuf.o)
                0x00009de0                packetbuf_totlen
 .text.packetbuf_hdralloc
                0x00009df6       0x3c contiki-avr-atmega256rfr2.a(packetbuf.o)
                0x00009df6                packetbuf_hdralloc
 .text.packetbuf_attr_clear
                0x00009e32       0x32 contiki-avr-atmega256rfr2.a(packetbuf.o)
                0x00009e32                packetbuf_attr_clear
 .text.packetbuf_clear
                0x00009e64       0x26 contiki-avr-atmega256rfr2.a(packetbuf.o)
                0x00009e64                packetbuf_clear
 .text.packetbuf_copyfrom
                0x00009e8a       0x60 contiki-avr-atmega256rfr2.a(packetbuf.o)
                0x00009e8a                packetbuf_copyfrom
 .text.packetbuf_attr_copyto
                0x00009eea       0x22 contiki-avr-atmega256rfr2.a(packetbuf.o)
                0x00009eea                packetbuf_attr_copyto
 .text.packetbuf_attr_copyfrom
                0x00009f0c       0x22 contiki-avr-atmega256rfr2.a(packetbuf.o)
                0x00009f0c                packetbuf_attr_copyfrom
 .text.packetbuf_set_attr
                0x00009f2e       0x16 contiki-avr-atmega256rfr2.a(packetbuf.o)
                0x00009f2e                packetbuf_set_attr
 .text.packetbuf_attr
                0x00009f44       0x12 contiki-avr-atmega256rfr2.a(packetbuf.o)
                0x00009f44                packetbuf_attr
 .text.packetbuf_set_addr
                0x00009f56       0x16 contiki-avr-atmega256rfr2.a(packetbuf.o)
                0x00009f56                packetbuf_set_addr
 .text.packetbuf_addr
                0x00009f6c        0xe contiki-avr-atmega256rfr2.a(packetbuf.o)
                0x00009f6c                packetbuf_addr
 .text.packetbuf_holds_broadcast
                0x00009f7a        0xc contiki-avr-atmega256rfr2.a(packetbuf.o)
                0x00009f7a                packetbuf_holds_broadcast
 .text.queuebuf_init
                0x00009f86       0x18 contiki-avr-atmega256rfr2.a(queuebuf.o)
                0x00009f86                queuebuf_init
 .text.queuebuf_numfree
                0x00009f9e       0x16 contiki-avr-atmega256rfr2.a(queuebuf.o)
                0x00009f9e                queuebuf_numfree
 .text.queuebuf_new_from_packetbuf
                0x00009fb4       0x9a contiki-avr-atmega256rfr2.a(queuebuf.o)
                0x00009fb4                queuebuf_new_from_packetbuf
 .text.queuebuf_free
                0x0000a04e       0x4a contiki-avr-atmega256rfr2.a(queuebuf.o)
                0x0000a04e                queuebuf_free
 .text.queuebuf_to_packetbuf
                0x0000a098       0x92 contiki-avr-atmega256rfr2.a(queuebuf.o)
                0x0000a098                queuebuf_to_packetbuf
 .text.bootstrap
                0x0000a12a        0x4 contiki-avr-atmega256rfr2.a(nullsec.o)
 .text.on_frame_created
                0x0000a12e        0x6 contiki-avr-atmega256rfr2.a(nullsec.o)
 .text.input    0x0000a134        0xa contiki-avr-atmega256rfr2.a(nullsec.o)
 .text.get_overhead
                0x0000a13e        0x4 contiki-avr-atmega256rfr2.a(nullsec.o)
 .text.send     0x0000a142       0x2c contiki-avr-atmega256rfr2.a(nullsec.o)
 .text.__vector_32
                0x0000a16e       0xee contiki-avr-atmega256rfr2.a(rtimer-arch.o)
                0x0000a16e                __vector_32
 .text.rtimer_arch_init
                0x0000a25c       0x34 contiki-avr-atmega256rfr2.a(rtimer-arch.o)
                0x0000a25c                rtimer_arch_init
 .text.rtimer_arch_schedule
                0x0000a290       0x20 contiki-avr-atmega256rfr2.a(rtimer-arch.o)
                0x0000a290                rtimer_arch_schedule
 .text.stimer_set
                0x0000a2b0       0x20 contiki-avr-atmega256rfr2.a(stimer.o)
                0x0000a2b0                stimer_set
 .text.stimer_expired
                0x0000a2d0       0x5c contiki-avr-atmega256rfr2.a(stimer.o)
                0x0000a2d0                stimer_expired
 .text.sicslowpan_init
                0x0000a32c       0x1e contiki-avr-atmega256rfr2.a(sicslowpan.o)
                0x0000a32c                sicslowpan_init
 .text.set_packet_attrs
                0x0000a34a       0x52 contiki-avr-atmega256rfr2.a(sicslowpan.o)
 .text.compress_addr_64
                0x0000a39c       0xcc contiki-avr-atmega256rfr2.a(sicslowpan.o)
 .text.addr_context_lookup_by_prefix
                0x0000a468       0x26 contiki-avr-atmega256rfr2.a(sicslowpan.o)
 .text.send_packet
                0x0000a48e       0x1e contiki-avr-atmega256rfr2.a(sicslowpan.o)
 .text.output   0x0000a4ac      0x87c contiki-avr-atmega256rfr2.a(sicslowpan.o)
 .text.packet_sent
                0x0000ad28       0x32 contiki-avr-atmega256rfr2.a(sicslowpan.o)
 .text.uncompress_addr
                0x0000ad5a       0xe2 contiki-avr-atmega256rfr2.a(sicslowpan.o)
 .text.input    0x0000ae3c      0x78e contiki-avr-atmega256rfr2.a(sicslowpan.o)
 .text.parse    0x0000b5ca       0xd4 contiki-avr-atmega256rfr2.a(framer-802154.o)
 .text.create_frame.isra.0
                0x0000b69e      0x14c contiki-avr-atmega256rfr2.a(framer-802154.o)
 .text.create   0x0000b7ea        0x8 contiki-avr-atmega256rfr2.a(framer-802154.o)
 .text.hdr_length
                0x0000b7f2        0x8 contiki-avr-atmega256rfr2.a(framer-802154.o)
 .text.framer_canonical_create_and_secure
                0x0000b7fa       0x34 contiki-avr-atmega256rfr2.a(framer.o)
                0x0000b7fa                framer_canonical_create_and_secure
 .text.mac_call_sent_callback
                0x0000b82e       0x10 contiki-avr-atmega256rfr2.a(mac.o)
                0x0000b82e                mac_call_sent_callback
 .text.field_len
                0x0000b83e       0x8e contiki-avr-atmega256rfr2.a(frame802154.o)
 .text.frame802154_hdrlen
                0x0000b8cc       0x46 contiki-avr-atmega256rfr2.a(frame802154.o)
                0x0000b8cc                frame802154_hdrlen
 .text.frame802154_create
                0x0000b912      0x1ac contiki-avr-atmega256rfr2.a(frame802154.o)
                0x0000b912                frame802154_create
 .text.frame802154_parse
                0x0000babe      0x19c contiki-avr-atmega256rfr2.a(frame802154.o)
                0x0000babe                frame802154_parse
 .text.libgcc.div
                0x0000bc5a       0x28 /usr/local/bin/../lib/gcc/avr/4.8.1/avr6/libgcc.a(_udivmodhi4.o)
                0x0000bc5a                __udivmodhi4
 .text.libgcc.div
                0x0000bc82       0x28 /usr/local/bin/../lib/gcc/avr/4.8.1/avr6/libgcc.a(_divmodhi4.o)
                0x0000bc82                __divmodhi4
                0x0000bc82                _div
 .text.libgcc.div
                0x0000bcaa       0x44 /usr/local/bin/../lib/gcc/avr/4.8.1/avr6/libgcc.a(_udivmodsi4.o)
                0x0000bcaa                __udivmodsi4
 .text.libgcc   0x0000bcee        0xc /usr/local/bin/../lib/gcc/avr/4.8.1/avr6/libgcc.a(_tablejump.o)
                0x0000bcee                __tablejump2__
                0x0000bcf2                __tablejump__
 .text.libgcc.builtins
                0x0000bcfa        0xe /usr/local/bin/../lib/gcc/avr/4.8.1/avr6/libgcc.a(_bswapsi2.o)
                0x0000bcfa                __bswapsi2
 .text.libgcc.mul
                0x0000bd08       0x1e /usr/local/bin/../lib/gcc/avr/4.8.1/avr6/libgcc.a(_umulhisi3.o)
                0x0000bd08                __umulhisi3
 .text.avr-libc
                0x0000bd26       0xb8 /usr/local/bin/../lib/gcc/avr/4.8.1/../../../../avr/lib/avr6/libc.a(rand.o)
                0x0000bdbc                rand_r
                0x0000bdc0                rand
                0x0000bdc8                srand
 .text.avr-libc
                0x0000bdde       0x1a /usr/local/bin/../lib/gcc/avr/4.8.1/../../../../avr/lib/avr6/libc.a(memcmp.o)
                0x0000bdde                memcmp
 .text.avr-libc
                0x0000bdf8       0x12 /usr/local/bin/../lib/gcc/avr/4.8.1/../../../../avr/lib/avr6/libc.a(memcpy.o)
                0x0000bdf8                memcpy
 .text.avr-libc
                0x0000be0a       0x24 /usr/local/bin/../lib/gcc/avr/4.8.1/../../../../avr/lib/avr6/libc.a(memmove.o)
                0x0000be0a                memmove
 .text.avr-libc
                0x0000be2e        0xe /usr/local/bin/../lib/gcc/avr/4.8.1/../../../../avr/lib/avr6/libc.a(memset.o)
                0x0000be2e                memset
 .text.avr-libc
                0x0000be3c       0x24 /usr/local/bin/../lib/gcc/avr/4.8.1/../../../../avr/lib/avr6/libc.a(printf.o)
                0x0000be3c                printf
 .text.avr-libc
                0x0000be60       0x48 /usr/local/bin/../lib/gcc/avr/4.8.1/../../../../avr/lib/avr6/libc.a(printf_p.o)
                0x0000be60                printf_P
 .text.avr-libc
                0x0000bea8        0xc /usr/local/bin/../lib/gcc/avr/4.8.1/../../../../avr/lib/avr6/libc.a(putchar.o)
                0x0000bea8                putchar
 .text.avr-libc
                0x0000beb4       0x5a /usr/local/bin/../lib/gcc/avr/4.8.1/../../../../avr/lib/avr6/libc.a(puts.o)
                0x0000beb4                puts
 .text.avr-libc
                0x0000bf0e      0x3f6 /usr/local/bin/../lib/gcc/avr/4.8.1/../../../../avr/lib/avr6/libc.a(vfprintf_std.o)
                0x0000bf0e                vfprintf
 .text.avr-libc
                0x0000c304       0x20 /usr/local/bin/../lib/gcc/avr/4.8.1/../../../../avr/lib/avr6/libc.a(eerd_block_atmega256rfr2.o)
                0x0000c304                __eerd_block_EEPROM_SUFFIX
                0x0000c308                __eerd_blraw_EEPROM_SUFFIX
 .text.avr-libc
                0x0000c324       0x10 /usr/local/bin/../lib/gcc/avr/4.8.1/../../../../avr/lib/avr6/libc.a(eerd_byte_atmega256rfr2.o)
                0x0000c324                __eerd_byte_EEPROM_SUFFIX
 .text.avr-libc
                0x0000c334        0xc /usr/local/bin/../lib/gcc/avr/4.8.1/../../../../avr/lib/avr6/libc.a(eerd_word_atmega256rfr2.o)
                0x0000c334                __eerd_word_EEPROM_SUFFIX
 .text.avr-libc
                0x0000c340       0x14 /usr/local/bin/../lib/gcc/avr/4.8.1/../../../../avr/lib/avr6/libc.a(eewr_block_atmega256rfr2.o)
                0x0000c340                __eewr_block_EEPROM_SUFFIX
 .text.avr-libc
                0x0000c354       0x1c /usr/local/bin/../lib/gcc/avr/4.8.1/../../../../avr/lib/avr6/libc.a(eewr_byte_atmega256rfr2.o)
                0x0000c354                __eewr_byte_EEPROM_SUFFIX
                0x0000c356                __eewr_r18_EEPROM_SUFFIX
 .text.avr-libc
                0x0000c370        0xa /usr/local/bin/../lib/gcc/avr/4.8.1/../../../../avr/lib/avr6/libc.a(eewr_word_atmega256rfr2.o)
                0x0000c370                __eewr_word_EEPROM_SUFFIX
 .text.avr-libc
                0x0000c37a       0x16 /usr/local/bin/../lib/gcc/avr/4.8.1/../../../../avr/lib/avr6/libc.a(strnlen_P.o)
                0x0000c37a                strnlen_P
 .text.avr-libc
                0x0000c390       0x16 /usr/local/bin/../lib/gcc/avr/4.8.1/../../../../avr/lib/avr6/libc.a(strnlen.o)
                0x0000c390                strnlen
 .text.avr-libc
                0x0000c3a6       0x64 /usr/local/bin/../lib/gcc/avr/4.8.1/../../../../avr/lib/avr6/libc.a(fputc.o)
                0x0000c3a6                fputc
 .text.avr-libc
                0x0000c40a       0xbc /usr/local/bin/../lib/gcc/avr/4.8.1/../../../../avr/lib/avr6/libc.a(ultoa_invert.o)
                0x0000c40a                __ultoa_invert
 .text.libgcc.div
                0x0000c4c6       0x2e /usr/local/bin/../lib/gcc/avr/4.8.1/avr6/libgcc.a(_divmodsi4.o)
                0x0000c4c6                __divmodsi4
 .text.libgcc.div
                0x0000c4f4       0x10 /usr/local/bin/../lib/gcc/avr/4.8.1/avr6/libgcc.a(_negsi2.o)
                0x0000c4f4                __negsi2
 .text.libgcc.mul
                0x0000c504       0x16 /usr/local/bin/../lib/gcc/avr/4.8.1/avr6/libgcc.a(_muluhisi3.o)
                0x0000c504                __muluhisi3
 .text.libgcc.mul
                0x0000c51a       0x10 /usr/local/bin/../lib/gcc/avr/4.8.1/avr6/libgcc.a(_mulshisi3.o)
                0x0000c51a                __mulshisi3
                0x0000c520                __mulohisi3
                0x0000c52a                . = ALIGN (0x2)
 *(.fini9)
 .fini9         0x0000c52a        0x0 /usr/local/bin/../lib/gcc/avr/4.8.1/avr6/libgcc.a(_exit.o)
                0x0000c52a                exit
                0x0000c52a                _exit
 *(.fini9)
 *(.fini8)
 *(.fini8)
 *(.fini7)
 *(.fini7)
 *(.fini6)
 *(.fini6)
 *(.fini5)
 *(.fini5)
 *(.fini4)
 *(.fini4)
 *(.fini3)
 *(.fini3)
 *(.fini2)
 *(.fini2)
 *(.fini1)
 *(.fini1)
 *(.fini0)
 .fini0         0x0000c52a        0x4 /usr/local/bin/../lib/gcc/avr/4.8.1/avr6/libgcc.a(_exit.o)
 *(.fini0)
                0x0000c52e                _etext = .

.data           0x00800200      0x2d8 load address 0x0000c52e
                0x00800200                PROVIDE (__data_start, .)
 *(.data)
 .data          0x00800200        0x4 /usr/local/bin/../lib/gcc/avr/4.8.1/../../../../avr/lib/avr6/libc.a(rand.o)
 *(.data*)
 .data.example_servreg_client_process
                0x00800204        0xa example-servreg-client.co
                0x00800204                example_servreg_client_process
 .data.servreg_hack_process
                0x0080020e        0xa contiki-avr-atmega256rfr2.a(servreg-hack.o)
                0x0080020e                servreg_hack_process
 .data.registrations
                0x00800218        0x8 contiki-avr-atmega256rfr2.a(servreg-hack.o)
 .data.rs232_stdout
                0x00800220        0xe contiki-avr-atmega256rfr2.a(rs232.o)
 .data.rf230_process
                0x0080022e        0xa contiki-avr-atmega256rfr2.a(rf230bb.o)
                0x0080022e                rf230_process
 .data.ctimer_process
                0x00800238        0xa contiki-avr-atmega256rfr2.a(ctimer.o)
                0x00800238                ctimer_process
 .data.etimer_process
                0x00800242        0xa contiki-avr-atmega256rfr2.a(etimer.o)
                0x00800242                etimer_process
 .data.ds6_neighbors
                0x0080024c        0x2 contiki-avr-atmega256rfr2.a(uip-ds6-nbr.o)
                0x0080024c                ds6_neighbors
 .data.ds6_neighbors_struct
                0x0080024e        0x8 contiki-avr-atmega256rfr2.a(uip-ds6-nbr.o)
 .data.defaultroutermemb
                0x00800256        0x8 contiki-avr-atmega256rfr2.a(uip-ds6-route.o)
 .data.routememb
                0x0080025e        0x8 contiki-avr-atmega256rfr2.a(uip-ds6-route.o)
 .data.neighborroutememb
                0x00800266        0x8 contiki-avr-atmega256rfr2.a(uip-ds6-route.o)
 .data.nbr_routes_struct
                0x0080026e        0x8 contiki-avr-atmega256rfr2.a(uip-ds6-route.o)
 .data.echo_reply_handler
                0x00800276        0x6 contiki-avr-atmega256rfr2.a(uip-icmp6.o)
 .data.echo_request_handler
                0x0080027c        0x6 contiki-avr-atmega256rfr2.a(uip-icmp6.o)
 .data.na_input_handler
                0x00800282        0x6 contiki-avr-atmega256rfr2.a(uip-nd6.o)
 .data.ns_input_handler
                0x00800288        0x6 contiki-avr-atmega256rfr2.a(uip-nd6.o)
 .data.tcpip_process
                0x0080028e        0xa contiki-avr-atmega256rfr2.a(tcpip.o)
                0x0080028e                tcpip_process
 .data.packets_memb
                0x00800298        0x8 contiki-avr-atmega256rfr2.a(uip-packetqueue)
 .data.rpl_parents_struct
                0x008002a0        0x8 contiki-avr-atmega256rfr2.a(rpl-dag.o)
 .data.dao_ack_handler
                0x008002a8        0x6 contiki-avr-atmega256rfr2.a(rpl-icmp6.o)
 .data.dao_handler
                0x008002ae        0x6 contiki-avr-atmega256rfr2.a(rpl-icmp6.o)
 .data.dio_handler
                0x008002b4        0x6 contiki-avr-atmega256rfr2.a(rpl-icmp6.o)
 .data.dis_handler
                0x008002ba        0x6 contiki-avr-atmega256rfr2.a(rpl-icmp6.o)
 .data.dao_sequence
                0x008002c0        0x1 contiki-avr-atmega256rfr2.a(rpl-icmp6.o)
 .data.rpl_mrhof
                0x008002c1        0xe contiki-avr-atmega256rfr2.a(rpl-mrhof.o)
                0x008002c1                rpl_mrhof
 .data.neighbor_addr_mem
                0x008002cf        0x8 contiki-avr-atmega256rfr2.a(nbr-table.o)
 .data.buframmem
                0x008002d7        0x8 contiki-avr-atmega256rfr2.a(queuebuf.o)
 .data.refbufmem
                0x008002df        0x8 contiki-avr-atmega256rfr2.a(queuebuf.o)
 .data.bufmem   0x008002e7        0x8 contiki-avr-atmega256rfr2.a(queuebuf.o)
 *(.rodata)
 *(.rodata*)
 .rodata.str1.1
                0x008002ef       0x26 example-servreg-client.co
 .rodata.autostart_processes
                0x00800315        0x4 example-servreg-client.co
                0x00800315                autostart_processes
 .rodata.str1.1
                0x00800319       0x99 contiki-avr-atmega256rfr2.a(servreg-hack.o)
 .rodata.str1.1
                0x008003b2       0x4f contiki-avr-atmega256rfr2.a(contiki-main.o)
 .rodata.str1.1
                0x00800401        0xd contiki-avr-atmega256rfr2.a(rf230bb.o)
 .rodata.rf230_driver
                0x0080040e       0x1c contiki-avr-atmega256rfr2.a(rf230bb.o)
                0x0080040e                rf230_driver
 .rodata.str1.1
                0x0080042a        0xf contiki-avr-atmega256rfr2.a(ctimer.o)
 .rodata.str1.1
                0x00800439        0xc contiki-avr-atmega256rfr2.a(etimer.o)
 .rodata.str1.1
                0x00800445        0xd contiki-avr-atmega256rfr2.a(tcpip.o)
 .rodata.str1.1
                0x00800452        0xf contiki-avr-atmega256rfr2.a(uip-debug.o)
 .rodata.str1.1
                0x00800461        0x8 contiki-avr-atmega256rfr2.a(nullmac.o)
 .rodata.nullmac_driver
                0x00800469        0xe contiki-avr-atmega256rfr2.a(nullmac.o)
                0x00800469                nullmac_driver
 .rodata.str1.1
                0x00800477        0x8 contiki-avr-atmega256rfr2.a(nullrdc.o)
 .rodata.nullrdc_driver
                0x0080047f       0x12 contiki-avr-atmega256rfr2.a(nullrdc.o)
                0x0080047f                nullrdc_driver
 .rodata.linkaddr_null
                0x00800491        0x8 contiki-avr-atmega256rfr2.a(linkaddr.o)
                0x00800491                linkaddr_null
 .rodata.str1.1
                0x00800499        0x8 contiki-avr-atmega256rfr2.a(nullsec.o)
 .rodata.nullsec_driver
                0x008004a1        0xc contiki-avr-atmega256rfr2.a(nullsec.o)
                0x008004a1                nullsec_driver
 .rodata.str1.1
                0x008004ad        0xb contiki-avr-atmega256rfr2.a(sicslowpan.o)
 .rodata.sicslowpan_driver
                0x008004b8        0x6 contiki-avr-atmega256rfr2.a(sicslowpan.o)
                0x008004b8                sicslowpan_driver
 .rodata.ttl_values
                0x008004be        0x4 contiki-avr-atmega256rfr2.a(sicslowpan.o)
 .rodata.llprefix
                0x008004c2        0x2 contiki-avr-atmega256rfr2.a(sicslowpan.o)
                0x008004c2                llprefix
 .rodata.unc_mxconf
                0x008004c4        0x4 contiki-avr-atmega256rfr2.a(sicslowpan.o)
                0x008004c4                unc_mxconf
 .rodata.unc_ctxconf
                0x008004c8        0x4 contiki-avr-atmega256rfr2.a(sicslowpan.o)
                0x008004c8                unc_ctxconf
 .rodata.unc_llconf
                0x008004cc        0x4 contiki-avr-atmega256rfr2.a(sicslowpan.o)
                0x008004cc                unc_llconf
 .rodata.framer_802154
                0x008004d0        0x8 contiki-avr-atmega256rfr2.a(framer-802154.o)
                0x008004d0                framer_802154
 *(.gnu.linkonce.d*)
                0x008004d8                . = ALIGN (0x2)
                0x008004d8                _edata = .
                0x008004d8                PROVIDE (__data_end, .)

.bss            0x008004d8     0x1e13
                0x008004d8                PROVIDE (__bss_start, .)
 *(.bss)
 *(.bss*)
 .bss.et.3053   0x008004d8        0x8 example-servreg-client.co
 .bss.periodic.4171
                0x008004e0        0x8 contiki-avr-atmega256rfr2.a(servreg-hack.o)
 .bss.inconn.4173
                0x008004e8        0x2 contiki-avr-atmega256rfr2.a(servreg-hack.o)
 .bss.outconn.4172
                0x008004ea        0x2 contiki-avr-atmega256rfr2.a(servreg-hack.o)
 .bss.started   0x008004ec        0x1 contiki-avr-atmega256rfr2.a(servreg-hack.o)
 .bss.sendtimer
                0x008004ed        0x8 contiki-avr-atmega256rfr2.a(servreg-hack.o)
 .bss.registrations_memb_mem
                0x008004f5      0x180 contiki-avr-atmega256rfr2.a(servreg-hack.o)
 .bss.registrations_memb_count
                0x00800675       0x10 contiki-avr-atmega256rfr2.a(servreg-hack.o)
 .bss.own_services_list
                0x00800685        0x2 contiki-avr-atmega256rfr2.a(servreg-hack.o)
 .bss.others_services_list
                0x00800687        0x2 contiki-avr-atmega256rfr2.a(servreg-hack.o)
 .bss.rcount    0x00800689        0x1 contiki-avr-atmega256rfr2.a(clock.o)
 .bss.count     0x0080068a        0x2 contiki-avr-atmega256rfr2.a(clock.o)
 .bss.stdout_rs232_port
                0x0080068c        0x1 contiki-avr-atmega256rfr2.a(rs232.o)
 .bss.buffer    0x0080068d       0x81 contiki-avr-atmega256rfr2.a(rf230bb.o)
 .bss.channel   0x0080070e        0x1 contiki-avr-atmega256rfr2.a(rf230bb.o)
 .bss.initialized
                0x0080070f        0x1 contiki-avr-atmega256rfr2.a(ctimer.o)
 .bss.ctimer_list_list
                0x00800710        0x2 contiki-avr-atmega256rfr2.a(ctimer.o)
 .bss.next_expiration
                0x00800712        0x2 contiki-avr-atmega256rfr2.a(etimer.o)
 .bss.timerlist
                0x00800714        0x2 contiki-avr-atmega256rfr2.a(etimer.o)
 .bss.snum.1757
                0x00800716        0x1 contiki-avr-atmega256rfr2.a(process.o)
 .bss.p.1742    0x00800717        0x2 contiki-avr-atmega256rfr2.a(process.o)
 .bss.receiver.1741
                0x00800719        0x2 contiki-avr-atmega256rfr2.a(process.o)
 .bss.data.1740
                0x0080071b        0x2 contiki-avr-atmega256rfr2.a(process.o)
 .bss.ev.1739   0x0080071d        0x1 contiki-avr-atmega256rfr2.a(process.o)
 .bss.poll_requested
                0x0080071e        0x1 contiki-avr-atmega256rfr2.a(process.o)
 .bss.events    0x0080071f       0xa0 contiki-avr-atmega256rfr2.a(process.o)
 .bss.fevent    0x008007bf        0x1 contiki-avr-atmega256rfr2.a(process.o)
 .bss.nevents   0x008007c0        0x1 contiki-avr-atmega256rfr2.a(process.o)
 .bss.lastevent
                0x008007c1        0x1 contiki-avr-atmega256rfr2.a(process.o)
 .bss.process_current
                0x008007c2        0x2 contiki-avr-atmega256rfr2.a(process.o)
                0x008007c2                process_current
 .bss.process_list
                0x008007c4        0x2 contiki-avr-atmega256rfr2.a(process.o)
                0x008007c4                process_list
 .bss.next_rtimer
                0x008007c6        0x2 contiki-avr-atmega256rfr2.a(rtimer.o)
 .bss.tmp16     0x008007c8        0x2 contiki-avr-atmega256rfr2.a(uip6.o)
 .bss.opt       0x008007ca        0x1 contiki-avr-atmega256rfr2.a(uip6.o)
 .bss.iss       0x008007cb        0x4 contiki-avr-atmega256rfr2.a(uip6.o)
 .bss.lastport  0x008007cf        0x2 contiki-avr-atmega256rfr2.a(uip6.o)
 .bss.c         0x008007d1        0x1 contiki-avr-atmega256rfr2.a(uip6.o)
 .bss.uip_ext_opt_offset
                0x008007d2        0x1 contiki-avr-atmega256rfr2.a(uip6.o)
                0x008007d2                uip_ext_opt_offset
 .bss.uip_ext_len
                0x008007d3        0x1 contiki-avr-atmega256rfr2.a(uip6.o)
                0x008007d3                uip_ext_len
 .bss.uip_ext_bitmap
                0x008007d4        0x1 contiki-avr-atmega256rfr2.a(uip6.o)
                0x008007d4                uip_ext_bitmap
 .bss.locprefix
                0x008007d5        0x2 contiki-avr-atmega256rfr2.a(uip-ds6.o)
 .bss.locmaddr  0x008007d7        0x2 contiki-avr-atmega256rfr2.a(uip-ds6.o)
 .bss.locaddr   0x008007d9        0x2 contiki-avr-atmega256rfr2.a(uip-ds6.o)
 .bss.loc_fipaddr
                0x008007db       0x10 contiki-avr-atmega256rfr2.a(uip-ds6.o)
 .bss._ds6_neighbors_mem
                0x008007eb      0x30c contiki-avr-atmega256rfr2.a(uip-ds6-nbr.o)
 .bss.num_routes
                0x00800af7        0x2 contiki-avr-atmega256rfr2.a(uip-ds6-route.o)
 .bss.notificationlist_list
                0x00800af9        0x2 contiki-avr-atmega256rfr2.a(uip-ds6-route.o)
 .bss.defaultroutermemb_memb_mem
                0x00800afb       0x36 contiki-avr-atmega256rfr2.a(uip-ds6-route.o)
 .bss.defaultroutermemb_memb_count
                0x00800b31        0x2 contiki-avr-atmega256rfr2.a(uip-ds6-route.o)
 .bss.defaultrouterlist_list
                0x00800b33        0x2 contiki-avr-atmega256rfr2.a(uip-ds6-route.o)
 .bss.routememb_memb_mem
                0x00800b35      0x244 contiki-avr-atmega256rfr2.a(uip-ds6-route.o)
 .bss.routememb_memb_count
                0x00800d79       0x14 contiki-avr-atmega256rfr2.a(uip-ds6-route.o)
 .bss.routelist_list
                0x00800d8d        0x2 contiki-avr-atmega256rfr2.a(uip-ds6-route.o)
 .bss.neighborroutememb_memb_mem
                0x00800d8f       0x50 contiki-avr-atmega256rfr2.a(uip-ds6-route.o)
 .bss.neighborroutememb_memb_count
                0x00800ddf       0x14 contiki-avr-atmega256rfr2.a(uip-ds6-route.o)
 .bss._nbr_routes_mem
                0x00800df3       0x50 contiki-avr-atmega256rfr2.a(uip-ds6-route.o)
 .bss.input_handler_list_list
                0x00800e43        0x2 contiki-avr-atmega256rfr2.a(uip-icmp6.o)
 .bss.echo_reply_callback_list_list
                0x00800e45        0x2 contiki-avr-atmega256rfr2.a(uip-icmp6.o)
 .bss.tmp_ipaddr
                0x00800e47       0x10 contiki-avr-atmega256rfr2.a(uip-icmp6.o)
 .bss.addr      0x00800e57        0x2 contiki-avr-atmega256rfr2.a(uip-nd6.o)
 .bss.defrt     0x00800e59        0x2 contiki-avr-atmega256rfr2.a(uip-nd6.o)
 .bss.nbr       0x00800e5b        0x2 contiki-avr-atmega256rfr2.a(uip-nd6.o)
 .bss.nd6_opt_llao
                0x00800e5d        0x2 contiki-avr-atmega256rfr2.a(uip-nd6.o)
 .bss.nd6_opt_offset
                0x00800e5f        0x1 contiki-avr-atmega256rfr2.a(uip-nd6.o)
 .bss.i.4499    0x00800e60        0x1 contiki-avr-atmega256rfr2.a(tcpip.o)
 .bss.i.4455    0x00800e61        0x1 contiki-avr-atmega256rfr2.a(tcpip.o)
 .bss.i.4511    0x00800e62        0x1 contiki-avr-atmega256rfr2.a(tcpip.o)
 .bss.outputfunc
                0x00800e63        0x2 contiki-avr-atmega256rfr2.a(tcpip.o)
 .bss.s         0x00800e65       0x12 contiki-avr-atmega256rfr2.a(tcpip.o)
 .bss.periodic  0x00800e77        0x8 contiki-avr-atmega256rfr2.a(tcpip.o)
 .bss.packets_memb_memb_mem
                0x00800e7f      0x20c contiki-avr-atmega256rfr2.a(uip-packetqueue)
 .bss.packets_memb_memb_count
                0x0080108b        0x2 contiki-avr-atmega256rfr2.a(uip-packetqueue)
 .bss.mode      0x0080108d        0x2 contiki-avr-atmega256rfr2.a(rpl.o)
 .bss._rpl_parents_mem
                0x0080108f       0xa0 contiki-avr-atmega256rfr2.a(rpl-dag.o)
 .bss.dio_send_ok
                0x0080112f        0x1 contiki-avr-atmega256rfr2.a(rpl-timers.o)
 .bss.next_dis  0x00801130        0x2 contiki-avr-atmega256rfr2.a(rpl-timers.o)
 .bss.periodic_timer
                0x00801132       0x10 contiki-avr-atmega256rfr2.a(rpl-timers.o)
 .bss.nbr_table_keys_list
                0x00801142        0x2 contiki-avr-atmega256rfr2.a(nbr-table.o)
 .bss.neighbor_addr_mem_memb_mem
                0x00801144       0xc8 contiki-avr-atmega256rfr2.a(nbr-table.o)
 .bss.neighbor_addr_mem_memb_count
                0x0080120c       0x14 contiki-avr-atmega256rfr2.a(nbr-table.o)
 .bss.num_tables
                0x00801220        0x2 contiki-avr-atmega256rfr2.a(nbr-table.o)
 .bss.all_tables
                0x00801222       0x10 contiki-avr-atmega256rfr2.a(nbr-table.o)
 .bss.locked_map
                0x00801232       0x14 contiki-avr-atmega256rfr2.a(nbr-table.o)
 .bss.used_map  0x00801246       0x14 contiki-avr-atmega256rfr2.a(nbr-table.o)
 .bss.packetbufptr
                0x0080125a        0x2 contiki-avr-atmega256rfr2.a(packetbuf.o)
 .bss.packetbuf_aligned
                0x0080125c       0xb0 contiki-avr-atmega256rfr2.a(packetbuf.o)
 .bss.hdrptr    0x0080130c        0x1 contiki-avr-atmega256rfr2.a(packetbuf.o)
 .bss.bufptr    0x0080130d        0x2 contiki-avr-atmega256rfr2.a(packetbuf.o)
 .bss.buflen    0x0080130f        0x2 contiki-avr-atmega256rfr2.a(packetbuf.o)
 .bss.buframmem_memb_mem
                0x00801311      0x6b0 contiki-avr-atmega256rfr2.a(queuebuf.o)
 .bss.buframmem_memb_count
                0x008019c1        0x8 contiki-avr-atmega256rfr2.a(queuebuf.o)
 .bss.refbufmem_memb_mem
                0x008019c9       0x6a contiki-avr-atmega256rfr2.a(queuebuf.o)
 .bss.refbufmem_memb_count
                0x00801a33        0x2 contiki-avr-atmega256rfr2.a(queuebuf.o)
 .bss.bufmem_memb_mem
                0x00801a35       0x10 contiki-avr-atmega256rfr2.a(queuebuf.o)
 .bss.bufmem_memb_count
                0x00801a45        0x8 contiki-avr-atmega256rfr2.a(queuebuf.o)
 .bss.hc06_ptr  0x00801a4d        0x2 contiki-avr-atmega256rfr2.a(sicslowpan.o)
 .bss.context   0x00801a4f        0x2 contiki-avr-atmega256rfr2.a(sicslowpan.o)
 .bss.addr_contexts
                0x00801a51        0xa contiki-avr-atmega256rfr2.a(sicslowpan.o)
 .bss.callback  0x00801a5b        0x2 contiki-avr-atmega256rfr2.a(sicslowpan.o)
 .bss.last_rssi
                0x00801a5d        0x2 contiki-avr-atmega256rfr2.a(sicslowpan.o)
 .bss.reass_timer
                0x00801a5f        0x4 contiki-avr-atmega256rfr2.a(sicslowpan.o)
 .bss.reass_tag
                0x00801a63        0x2 contiki-avr-atmega256rfr2.a(sicslowpan.o)
 .bss.my_tag    0x00801a65        0x2 contiki-avr-atmega256rfr2.a(sicslowpan.o)
 .bss.processed_ip_in_len
                0x00801a67        0x2 contiki-avr-atmega256rfr2.a(sicslowpan.o)
 .bss.sicslowpan_aligned_buf
                0x00801a69       0xf0 contiki-avr-atmega256rfr2.a(sicslowpan.o)
 .bss.sicslowpan_len
                0x00801b59        0x2 contiki-avr-atmega256rfr2.a(sicslowpan.o)
 .bss.last_tx_status
                0x00801b5b        0x2 contiki-avr-atmega256rfr2.a(sicslowpan.o)
 .bss.uncomp_hdr_len
                0x00801b5d        0x1 contiki-avr-atmega256rfr2.a(sicslowpan.o)
 .bss.packetbuf_payload_len
                0x00801b5e        0x2 contiki-avr-atmega256rfr2.a(sicslowpan.o)
 .bss.packetbuf_hdr_len
                0x00801b60        0x1 contiki-avr-atmega256rfr2.a(sicslowpan.o)
 .bss.packetbuf_ptr
                0x00801b61        0x2 contiki-avr-atmega256rfr2.a(sicslowpan.o)
 .bss.initialized
                0x00801b63        0x1 contiki-avr-atmega256rfr2.a(framer-802154.o)
 .bss.mac_dsn   0x00801b64        0x1 contiki-avr-atmega256rfr2.a(framer-802154.o)
 *(COMMON)
 COMMON         0x00801b65        0x6 contiki-avr-atmega256rfr2.a(contiki-main.o)
                0x00801b65                ledtimer
                0x00801b67                clocktime
 COMMON         0x00801b6b        0xc contiki-avr-atmega256rfr2.a(clock.o)
                0x00801b6b                radioontime
                0x00801b6f                sleepseconds
                0x00801b73                seconds
 COMMON         0x00801b77        0x4 contiki-avr-atmega256rfr2.a(rs232.o)
                0x00801b77                input_handler_1
                0x00801b79                input_handler_0
 COMMON         0x00801b7b      0x198 contiki-avr-atmega256rfr2.a(rf230bb.o)
                0x00801b7b                rf230_last_correlation
                0x00801b7c                rf230_last_rssi
                0x00801b7d                RF230_receivefail
                0x00801b7f                rf230_smallest_rssi
                0x00801b80                rf230_pending
                0x00801b81                rf230_ccawait
                0x00801b82                RF230_receivepackets
                0x00801b84                rf230_txendwait
                0x00801b85                rxframe_tail
                0x00801b86                rxframe_head
                0x00801b87                rxframe
                0x00801d0d                rf230_wakewait
                0x00801d0e                RF230_sendpackets
                0x00801d10                RF230_sendfail
                0x00801d12                RF230_receive_on
 COMMON         0x00801d13       0x56 contiki-avr-atmega256rfr2.a(energest.o)
                0x00801d13                energest_total_time
                0x00801d43                energest_total_count
                0x00801d45                energest_current_mode
                0x00801d51                energest_current_time
 COMMON         0x00801d69      0x2c1 contiki-avr-atmega256rfr2.a(uip6.o)
                0x00801d69                uip_len
                0x00801d6b                uip_sappdata
                0x00801d6d                uip_acc32
                0x00801d71                uip_lladdr
                0x00801d79                uip_aligned_buf
                0x00801e69                uip_flags
                0x00801e6a                uip_next_hdr
                0x00801e6c                uip_udp_conn
                0x00801e6e                uip_appdata
                0x00801e70                uip_conn
                0x00801e72                uip_conns
                0x00801f22                uip_icmp6_conns
                0x00801f26                uip_listenports
                0x00801f2e                uip_slen
                0x00801f30                uip_udp_conns
 COMMON         0x0080202a      0x19d contiki-avr-atmega256rfr2.a(uip-ds6.o)
                0x0080202a                uip_ds6_timer_ra
                0x00802032                uip_ds6_if
                0x0080214d                uip_ds6_netif_addr_list_offset
                0x0080214e                uip_ds6_addr_size
                0x0080214f                uip_ds6_prefix_list
                0x008021bf                uip_ds6_timer_periodic
 COMMON         0x008021c7        0x2 contiki-avr-atmega256rfr2.a(tcpip.o)
                0x008021c7                tcpip_event
                0x008021c8                tcpip_icmp6_event
 COMMON         0x008021c9       0xb8 contiki-avr-atmega256rfr2.a(rpl-dag.o)
                0x008021c9                default_instance
                0x008021cb                instance_table
 COMMON         0x00802281        0x8 contiki-avr-atmega256rfr2.a(linkaddr.o)
                0x00802281                linkaddr_node_addr
 COMMON         0x00802289       0x54 contiki-avr-atmega256rfr2.a(packetbuf.o)
                0x00802289                packetbuf_addrs
                0x008022a9                packetbuf_attrs
 COMMON         0x008022dd        0x8 contiki-avr-atmega256rfr2.a(sicslowpan.o)
                0x008022dd                frag_sender
 COMMON         0x008022e5        0x6 /usr/local/bin/../lib/gcc/avr/4.8.1/../../../../avr/lib/avr6/libc.a(iob.o)
                0x008022e5                __iob
                0x008022eb                PROVIDE (__bss_end, .)
                0x0000c52e                __data_load_start = LOADADDR (.data)
                0x0000c806                __data_load_end = (__data_load_start + SIZEOF (.data))

.noinit         0x008022eb        0x0
                0x008022eb                PROVIDE (__noinit_start, .)
 *(.noinit*)
                0x008022eb                PROVIDE (__noinit_end, .)
                0x008022eb                _end = .
                0x008022eb                PROVIDE (__heap_start, .)

.eeprom         0x00810000       0x29
 *(.eeprom*)
 .eeprom        0x00810000       0x29 contiki-avr-atmega256rfr2.a(params.o)
                0x00810000                eemem_txpower
                0x00810001                eemem_panaddr
                0x00810003                eemem_panid
                0x00810005                eemem_channel
                0x00810007                eemem_nodeid
                0x00810009                eemem_domain_name
                0x00810013                eemem_server_name
                0x00810021                eemem_mac_address
                0x00810029                __eeprom_end = .

.fuse           0x00820000        0x3
 *(.fuse)
 .fuse          0x00820000        0x3 contiki-avr-atmega256rfr2.a(contiki-main.o)
                0x00820000                __fuse
 *(.lfuse)
 *(.hfuse)
 *(.efuse)

.lock
 *(.lock*)

.signature      0x00840000        0x3
 *(.signature*)
 .signature     0x00840000        0x3 contiki-avr-atmega256rfr2.a(contiki-main.o)
                0x00840000                __signature

.user_signatures
 *(.user_signatures*)

.stab
 *(.stab)

.stabstr
 *(.stabstr)

.stab.excl
 *(.stab.excl)

.stab.exclstr
 *(.stab.exclstr)

.stab.index
 *(.stab.index)

.stab.indexstr
 *(.stab.indexstr)

.comment        0x00000000       0x5c
 *(.comment)
 .comment       0x00000000       0x30 example-servreg-client.co
                                 0x31 (size before relaxing)
 .comment       0x00000000       0x31 contiki-avr-atmega256rfr2.a(servreg-hack.o)
 .comment       0x00000000       0x31 contiki-avr-atmega256rfr2.a(contiki-main.o)
 .comment       0x00000000       0x31 contiki-avr-atmega256rfr2.a(params.o)
 .comment       0x00000000       0x31 contiki-avr-atmega256rfr2.a(ssd1306.o)
 .comment       0x00000000       0x31 contiki-avr-atmega256rfr2.a(clock.o)
 .comment       0x00000000       0x31 contiki-avr-atmega256rfr2.a(rs232.o)
 .comment       0x00000000       0x31 contiki-avr-atmega256rfr2.a(watchdog.o)
 .comment       0x00000000       0x31 contiki-avr-atmega256rfr2.a(random.o)
 .comment       0x00000000       0x31 contiki-avr-atmega256rfr2.a(rf230bb.o)
 .comment       0x00000000       0x31 contiki-avr-atmega256rfr2.a(halbb.o)
 .comment       0x00000000       0x31 contiki-avr-atmega256rfr2.a(autostart.o)
 .comment       0x00000000       0x31 contiki-avr-atmega256rfr2.a(ctimer.o)
 .comment       0x00000000       0x31 contiki-avr-atmega256rfr2.a(energest.o)
 .comment       0x00000000       0x31 contiki-avr-atmega256rfr2.a(etimer.o)
 .comment       0x00000000       0x31 contiki-avr-atmega256rfr2.a(process.o)
 .comment       0x00000000       0x31 contiki-avr-atmega256rfr2.a(rtimer.o)
 .comment       0x00000000       0x31 contiki-avr-atmega256rfr2.a(timer.o)
 .comment       0x00000000       0x31 contiki-avr-atmega256rfr2.a(list.o)
 .comment       0x00000000       0x31 contiki-avr-atmega256rfr2.a(memb.o)
 .comment       0x00000000       0x31 contiki-avr-atmega256rfr2.a(print-stats.o)
 .comment       0x00000000       0x31 contiki-avr-atmega256rfr2.a(uip6.o)
 .comment       0x00000000       0x31 contiki-avr-atmega256rfr2.a(uip-ds6.o)
 .comment       0x00000000       0x31 contiki-avr-atmega256rfr2.a(uip-ds6-nbr.o)
 .comment       0x00000000       0x31 contiki-avr-atmega256rfr2.a(uip-ds6-route.o)
 .comment       0x00000000       0x31 contiki-avr-atmega256rfr2.a(uip-icmp6.o)
 .comment       0x00000000       0x31 contiki-avr-atmega256rfr2.a(uip-nd6.o)
 .comment       0x00000000       0x31 contiki-avr-atmega256rfr2.a(tcpip.o)
 .comment       0x00000000       0x31 contiki-avr-atmega256rfr2.a(uip-debug.o)
 .comment       0x00000000       0x31 contiki-avr-atmega256rfr2.a(uip-packetqueue)
 .comment       0x00000000       0x31 contiki-avr-atmega256rfr2.a(uip-split.o)
 .comment       0x00000000       0x31 contiki-avr-atmega256rfr2.a(uip-udp-packet.)
 .comment       0x00000000       0x31 contiki-avr-atmega256rfr2.a(rpl.o)
 .comment       0x00000000       0x31 contiki-avr-atmega256rfr2.a(rpl-dag.o)
 .comment       0x00000000       0x31 contiki-avr-atmega256rfr2.a(rpl-ext-header.)
 .comment       0x00000000       0x31 contiki-avr-atmega256rfr2.a(rpl-icmp6.o)
 .comment       0x00000000       0x31 contiki-avr-atmega256rfr2.a(rpl-mrhof.o)
 .comment       0x00000000       0x31 contiki-avr-atmega256rfr2.a(rpl-timers.o)
 .comment       0x00000000       0x31 contiki-avr-atmega256rfr2.a(nullmac.o)
 .comment       0x00000000       0x31 contiki-avr-atmega256rfr2.a(nullrdc.o)
 .comment       0x00000000       0x31 contiki-avr-atmega256rfr2.a(linkaddr.o)
 .comment       0x00000000       0x31 contiki-avr-atmega256rfr2.a(nbr-table.o)
 .comment       0x00000000       0x31 contiki-avr-atmega256rfr2.a(netstack.o)
 .comment       0x00000000       0x31 contiki-avr-atmega256rfr2.a(packetbuf.o)
 .comment       0x00000000       0x31 contiki-avr-atmega256rfr2.a(queuebuf.o)
 .comment       0x00000000       0x31 contiki-avr-atmega256rfr2.a(nullsec.o)
 .comment       0x00000000       0x31 contiki-avr-atmega256rfr2.a(rtimer-arch.o)
 .comment       0x00000000       0x31 contiki-avr-atmega256rfr2.a(stimer.o)
 .comment       0x00000000       0x31 contiki-avr-atmega256rfr2.a(sicslowpan.o)
 .comment       0x00000000       0x31 contiki-avr-atmega256rfr2.a(framer-802154.o)
 .comment       0x00000000       0x31 contiki-avr-atmega256rfr2.a(framer.o)
 .comment       0x00000000       0x31 contiki-avr-atmega256rfr2.a(mac.o)
 .comment       0x00000000       0x31 contiki-avr-atmega256rfr2.a(frame802154.o)
 .comment       0x00000000       0x31 /usr/local/bin/../lib/gcc/avr/4.8.1/../../../../avr/lib/avr6/libc.a(rand.o)
 .comment       0x00000000       0x31 /usr/local/bin/../lib/gcc/avr/4.8.1/../../../../avr/lib/avr6/libc.a(iob.o)
 .comment       0x00000000       0x31 /usr/local/bin/../lib/gcc/avr/4.8.1/../../../../avr/lib/avr6/libc.a(printf.o)
 .comment       0x00000000       0x31 /usr/local/bin/../lib/gcc/avr/4.8.1/../../../../avr/lib/avr6/libc.a(printf_p.o)
 .comment       0x00000000       0x31 /usr/local/bin/../lib/gcc/avr/4.8.1/../../../../avr/lib/avr6/libc.a(putchar.o)
 .comment       0x00000000       0x31 /usr/local/bin/../lib/gcc/avr/4.8.1/../../../../avr/lib/avr6/libc.a(puts.o)
 .comment       0x00000030       0x2c /usr/local/bin/../lib/gcc/avr/4.8.1/../../../../avr/lib/avr6/libc.a(vfprintf_std.o)
                                 0x2d (size before relaxing)
 .comment       0x00000000       0x31 /usr/local/bin/../lib/gcc/avr/4.8.1/../../../../avr/lib/avr6/libc.a(fputc.o)

.note.gnu.build-id
 *(.note.gnu.build-id)

.debug
 *(.debug)

.line
 *(.line)

.debug_srcinfo
 *(.debug_srcinfo)

.debug_sfnames
 *(.debug_sfnames)

.debug_aranges  0x00000000     0x1488
 *(.debug_aranges)
 .debug_aranges
                0x00000000       0x20 example-servreg-client.co
 .debug_aranges
                0x00000020       0x58 contiki-avr-atmega256rfr2.a(servreg-hack.o)
 .debug_aranges
                0x00000078       0x40 contiki-avr-atmega256rfr2.a(contiki-main.o)
 .debug_aranges
                0x000000b8       0x40 contiki-avr-atmega256rfr2.a(params.o)
 .debug_aranges
                0x000000f8       0xf0 contiki-avr-atmega256rfr2.a(ssd1306.o)
 .debug_aranges
                0x000001e8       0x60 contiki-avr-atmega256rfr2.a(clock.o)
 .debug_aranges
                0x00000248       0x60 contiki-avr-atmega256rfr2.a(rs232.o)
 .debug_aranges
                0x000002a8       0x40 contiki-avr-atmega256rfr2.a(watchdog.o)
 .debug_aranges
                0x000002e8       0x28 contiki-avr-atmega256rfr2.a(random.o)
 .debug_aranges
                0x00000310      0x130 contiki-avr-atmega256rfr2.a(rf230bb.o)
 .debug_aranges
                0x00000440       0x80 contiki-avr-atmega256rfr2.a(halbb.o)
 .debug_aranges
                0x000004c0       0x28 contiki-avr-atmega256rfr2.a(autostart.o)
 .debug_aranges
                0x000004e8       0x50 contiki-avr-atmega256rfr2.a(ctimer.o)
 .debug_aranges
                0x00000538       0x40 contiki-avr-atmega256rfr2.a(energest.o)
 .debug_aranges
                0x00000578       0x88 contiki-avr-atmega256rfr2.a(etimer.o)
 .debug_aranges
                0x00000600       0x88 contiki-avr-atmega256rfr2.a(process.o)
 .debug_aranges
                0x00000688       0x38 contiki-avr-atmega256rfr2.a(rtimer.o)
 .debug_aranges
                0x000006c0       0x40 contiki-avr-atmega256rfr2.a(timer.o)
 .debug_aranges
                0x00000700       0x78 contiki-avr-atmega256rfr2.a(list.o)
 .debug_aranges
                0x00000778       0x40 contiki-avr-atmega256rfr2.a(memb.o)
 .debug_aranges
                0x000007b8       0x20 contiki-avr-atmega256rfr2.a(print-stats.o)
 .debug_aranges
                0x000007d8       0xb0 contiki-avr-atmega256rfr2.a(uip6.o)
 .debug_aranges
                0x00000888       0xc8 contiki-avr-atmega256rfr2.a(uip-ds6.o)
 .debug_aranges
                0x00000950       0x80 contiki-avr-atmega256rfr2.a(uip-ds6-nbr.o)
 .debug_aranges
                0x000009d0       0xb0 contiki-avr-atmega256rfr2.a(uip-ds6-route.o)
 .debug_aranges
                0x00000a80       0x60 contiki-avr-atmega256rfr2.a(uip-icmp6.o)
 .debug_aranges
                0x00000ae0       0x38 contiki-avr-atmega256rfr2.a(uip-nd6.o)
 .debug_aranges
                0x00000b18       0xa8 contiki-avr-atmega256rfr2.a(tcpip.o)
 .debug_aranges
                0x00000bc0       0x28 contiki-avr-atmega256rfr2.a(uip-debug.o)
 .debug_aranges
                0x00000be8       0x50 contiki-avr-atmega256rfr2.a(uip-packetqueue)
 .debug_aranges
                0x00000c38       0x20 contiki-avr-atmega256rfr2.a(uip-split.o)
 .debug_aranges
                0x00000c58       0x28 contiki-avr-atmega256rfr2.a(uip-udp-packet.)
 .debug_aranges
                0x00000c80       0x60 contiki-avr-atmega256rfr2.a(rpl.o)
 .debug_aranges
                0x00000ce0      0x160 contiki-avr-atmega256rfr2.a(rpl-dag.o)
 .debug_aranges
                0x00000e40       0x48 contiki-avr-atmega256rfr2.a(rpl-ext-header.)
 .debug_aranges
                0x00000e88       0x88 contiki-avr-atmega256rfr2.a(rpl-icmp6.o)
 .debug_aranges
                0x00000f10       0x48 contiki-avr-atmega256rfr2.a(rpl-mrhof.o)
 .debug_aranges
                0x00000f58       0x70 contiki-avr-atmega256rfr2.a(rpl-timers.o)
 .debug_aranges
                0x00000fc8       0x48 contiki-avr-atmega256rfr2.a(nullmac.o)
 .debug_aranges
                0x00001010       0x58 contiki-avr-atmega256rfr2.a(nullrdc.o)
 .debug_aranges
                0x00001068       0x30 contiki-avr-atmega256rfr2.a(linkaddr.o)
 .debug_aranges
                0x00001098       0x90 contiki-avr-atmega256rfr2.a(nbr-table.o)
 .debug_aranges
                0x00001128       0x20 contiki-avr-atmega256rfr2.a(netstack.o)
 .debug_aranges
                0x00001148       0xe8 contiki-avr-atmega256rfr2.a(packetbuf.o)
 .debug_aranges
                0x00001230       0x78 contiki-avr-atmega256rfr2.a(queuebuf.o)
 .debug_aranges
                0x000012a8       0x40 contiki-avr-atmega256rfr2.a(nullsec.o)
 .debug_aranges
                0x000012e8       0x30 contiki-avr-atmega256rfr2.a(rtimer-arch.o)
 .debug_aranges
                0x00001318       0x48 contiki-avr-atmega256rfr2.a(stimer.o)
 .debug_aranges
                0x00001360       0x78 contiki-avr-atmega256rfr2.a(sicslowpan.o)
 .debug_aranges
                0x000013d8       0x38 contiki-avr-atmega256rfr2.a(framer-802154.o)
 .debug_aranges
                0x00001410       0x20 contiki-avr-atmega256rfr2.a(framer.o)
 .debug_aranges
                0x00001430       0x20 contiki-avr-atmega256rfr2.a(mac.o)
 .debug_aranges
                0x00001450       0x38 contiki-avr-atmega256rfr2.a(frame802154.o)

.debug_pubnames
 *(.debug_pubnames)

.debug_info     0x00000000    0x21c88
 *(.debug_info .gnu.linkonce.wi.*)
 .debug_info    0x00000000      0x6a5 example-servreg-client.co
 .debug_info    0x000006a5     0x1010 contiki-avr-atmega256rfr2.a(servreg-hack.o)
 .debug_info    0x000016b5     0x1351 contiki-avr-atmega256rfr2.a(contiki-main.o)
 .debug_info    0x00002a06      0x642 contiki-avr-atmega256rfr2.a(params.o)
 .debug_info    0x00003048      0x7ed contiki-avr-atmega256rfr2.a(ssd1306.o)
 .debug_info    0x00003835      0x320 contiki-avr-atmega256rfr2.a(clock.o)
 .debug_info    0x00003b55      0x4a5 contiki-avr-atmega256rfr2.a(rs232.o)
 .debug_info    0x00003ffa       0xe6 contiki-avr-atmega256rfr2.a(watchdog.o)
 .debug_info    0x000040e0       0xf7 contiki-avr-atmega256rfr2.a(random.o)
 .debug_info    0x000041d7     0x1a91 contiki-avr-atmega256rfr2.a(rf230bb.o)
 .debug_info    0x00005c68      0x3ba contiki-avr-atmega256rfr2.a(halbb.o)
 .debug_info    0x00006022      0x203 contiki-avr-atmega256rfr2.a(autostart.o)
 .debug_info    0x00006225      0x7a7 contiki-avr-atmega256rfr2.a(ctimer.o)
 .debug_info    0x000069cc      0x297 contiki-avr-atmega256rfr2.a(energest.o)
 .debug_info    0x00006c63      0x6e9 contiki-avr-atmega256rfr2.a(etimer.o)
 .debug_info    0x0000734c      0x75c contiki-avr-atmega256rfr2.a(process.o)
 .debug_info    0x00007aa8      0x2f5 contiki-avr-atmega256rfr2.a(rtimer.o)
 .debug_info    0x00007d9d      0x1c3 contiki-avr-atmega256rfr2.a(timer.o)
 .debug_info    0x00007f60      0x3de contiki-avr-atmega256rfr2.a(list.o)
 .debug_info    0x0000833e      0x259 contiki-avr-atmega256rfr2.a(memb.o)
 .debug_info    0x00008597      0x1a8 contiki-avr-atmega256rfr2.a(print-stats.o)
 .debug_info    0x0000873f     0x15f9 contiki-avr-atmega256rfr2.a(uip6.o)
 .debug_info    0x00009d38     0x10c9 contiki-avr-atmega256rfr2.a(uip-ds6.o)
 .debug_info    0x0000ae01     0x115b contiki-avr-atmega256rfr2.a(uip-ds6-nbr.o)
 .debug_info    0x0000bf5c     0x1920 contiki-avr-atmega256rfr2.a(uip-ds6-route.o)
 .debug_info    0x0000d87c      0xb62 contiki-avr-atmega256rfr2.a(uip-icmp6.o)
 .debug_info    0x0000e3de      0xe94 contiki-avr-atmega256rfr2.a(uip-nd6.o)
 .debug_info    0x0000f272     0x20d4 contiki-avr-atmega256rfr2.a(tcpip.o)
 .debug_info    0x00011346      0x235 contiki-avr-atmega256rfr2.a(uip-debug.o)
 .debug_info    0x0001157b      0x618 contiki-avr-atmega256rfr2.a(uip-packetqueue)
 .debug_info    0x00011b93      0x3a7 contiki-avr-atmega256rfr2.a(uip-split.o)
 .debug_info    0x00011f3a      0x43d contiki-avr-atmega256rfr2.a(uip-udp-packet.)
 .debug_info    0x00012377     0x1148 contiki-avr-atmega256rfr2.a(rpl.o)
 .debug_info    0x000134bf     0x2d32 contiki-avr-atmega256rfr2.a(rpl-dag.o)
 .debug_info    0x000161f1      0xffb contiki-avr-atmega256rfr2.a(rpl-ext-header.)
 .debug_info    0x000171ec     0x1f38 contiki-avr-atmega256rfr2.a(rpl-icmp6.o)
 .debug_info    0x00019124      0xcfa contiki-avr-atmega256rfr2.a(rpl-mrhof.o)
 .debug_info    0x00019e1e     0x104e contiki-avr-atmega256rfr2.a(rpl-timers.o)
 .debug_info    0x0001ae6c      0x483 contiki-avr-atmega256rfr2.a(nullmac.o)
 .debug_info    0x0001b2ef      0xaa4 contiki-avr-atmega256rfr2.a(nullrdc.o)
 .debug_info    0x0001bd93      0x1fc contiki-avr-atmega256rfr2.a(linkaddr.o)
 .debug_info    0x0001bf8f      0xf77 contiki-avr-atmega256rfr2.a(nbr-table.o)
 .debug_info    0x0001cf06      0x4e8 contiki-avr-atmega256rfr2.a(netstack.o)
 .debug_info    0x0001d3ee      0x931 contiki-avr-atmega256rfr2.a(packetbuf.o)
 .debug_info    0x0001dd1f      0xc1d contiki-avr-atmega256rfr2.a(queuebuf.o)
 .debug_info    0x0001e93c      0x4ba contiki-avr-atmega256rfr2.a(nullsec.o)
 .debug_info    0x0001edf6      0x1f7 contiki-avr-atmega256rfr2.a(rtimer-arch.o)
 .debug_info    0x0001efed      0x1e1 contiki-avr-atmega256rfr2.a(stimer.o)
 .debug_info    0x0001f1ce     0x1799 contiki-avr-atmega256rfr2.a(sicslowpan.o)
 .debug_info    0x00020967      0x9d2 contiki-avr-atmega256rfr2.a(framer-802154.o)
 .debug_info    0x00021339      0x21a contiki-avr-atmega256rfr2.a(framer.o)
 .debug_info    0x00021553      0x148 contiki-avr-atmega256rfr2.a(mac.o)
 .debug_info    0x0002169b      0x5ed contiki-avr-atmega256rfr2.a(frame802154.o)

.debug_abbrev   0x00000000     0x84ef
 *(.debug_abbrev)
 .debug_abbrev  0x00000000      0x2a0 example-servreg-client.co
 .debug_abbrev  0x000002a0      0x424 contiki-avr-atmega256rfr2.a(servreg-hack.o)
 .debug_abbrev  0x000006c4      0x396 contiki-avr-atmega256rfr2.a(contiki-main.o)
 .debug_abbrev  0x00000a5a      0x1a0 contiki-avr-atmega256rfr2.a(params.o)
 .debug_abbrev  0x00000bfa      0x1ee contiki-avr-atmega256rfr2.a(ssd1306.o)
 .debug_abbrev  0x00000de8      0x1ec contiki-avr-atmega256rfr2.a(clock.o)
 .debug_abbrev  0x00000fd4      0x25b contiki-avr-atmega256rfr2.a(rs232.o)
 .debug_abbrev  0x0000122f       0x51 contiki-avr-atmega256rfr2.a(watchdog.o)
 .debug_abbrev  0x00001280       0xc6 contiki-avr-atmega256rfr2.a(random.o)
 .debug_abbrev  0x00001346      0x50f contiki-avr-atmega256rfr2.a(rf230bb.o)
 .debug_abbrev  0x00001855      0x196 contiki-avr-atmega256rfr2.a(halbb.o)
 .debug_abbrev  0x000019eb      0x129 contiki-avr-atmega256rfr2.a(autostart.o)
 .debug_abbrev  0x00001b14      0x267 contiki-avr-atmega256rfr2.a(ctimer.o)
 .debug_abbrev  0x00001d7b      0x141 contiki-avr-atmega256rfr2.a(energest.o)
 .debug_abbrev  0x00001ebc      0x334 contiki-avr-atmega256rfr2.a(etimer.o)
 .debug_abbrev  0x000021f0      0x38f contiki-avr-atmega256rfr2.a(process.o)
 .debug_abbrev  0x0000257f      0x19c contiki-avr-atmega256rfr2.a(rtimer.o)
 .debug_abbrev  0x0000271b       0xfb contiki-avr-atmega256rfr2.a(timer.o)
 .debug_abbrev  0x00002816      0x1a6 contiki-avr-atmega256rfr2.a(list.o)
 .debug_abbrev  0x000029bc      0x11c contiki-avr-atmega256rfr2.a(memb.o)
 .debug_abbrev  0x00002ad8      0x111 contiki-avr-atmega256rfr2.a(print-stats.o)
 .debug_abbrev  0x00002be9      0x435 contiki-avr-atmega256rfr2.a(uip6.o)
 .debug_abbrev  0x0000301e      0x340 contiki-avr-atmega256rfr2.a(uip-ds6.o)
 .debug_abbrev  0x0000335e      0x355 contiki-avr-atmega256rfr2.a(uip-ds6-nbr.o)
 .debug_abbrev  0x000036b3      0x3ef contiki-avr-atmega256rfr2.a(uip-ds6-route.o)
 .debug_abbrev  0x00003aa2      0x3d1 contiki-avr-atmega256rfr2.a(uip-icmp6.o)
 .debug_abbrev  0x00003e73      0x36a contiki-avr-atmega256rfr2.a(uip-nd6.o)
 .debug_abbrev  0x000041dd      0x576 contiki-avr-atmega256rfr2.a(tcpip.o)
 .debug_abbrev  0x00004753      0x10c contiki-avr-atmega256rfr2.a(uip-debug.o)
 .debug_abbrev  0x0000485f      0x25c contiki-avr-atmega256rfr2.a(uip-packetqueue)
 .debug_abbrev  0x00004abb      0x18d contiki-avr-atmega256rfr2.a(uip-split.o)
 .debug_abbrev  0x00004c48      0x21d contiki-avr-atmega256rfr2.a(uip-udp-packet.)
 .debug_abbrev  0x00004e65      0x374 contiki-avr-atmega256rfr2.a(rpl.o)
 .debug_abbrev  0x000051d9      0x57b contiki-avr-atmega256rfr2.a(rpl-dag.o)
 .debug_abbrev  0x00005754      0x312 contiki-avr-atmega256rfr2.a(rpl-ext-header.)
 .debug_abbrev  0x00005a66      0x45a contiki-avr-atmega256rfr2.a(rpl-icmp6.o)
 .debug_abbrev  0x00005ec0      0x2dc contiki-avr-atmega256rfr2.a(rpl-mrhof.o)
 .debug_abbrev  0x0000619c      0x365 contiki-avr-atmega256rfr2.a(rpl-timers.o)
 .debug_abbrev  0x00006501      0x18d contiki-avr-atmega256rfr2.a(nullmac.o)
 .debug_abbrev  0x0000668e      0x377 contiki-avr-atmega256rfr2.a(nullrdc.o)
 .debug_abbrev  0x00006a05      0x13e contiki-avr-atmega256rfr2.a(linkaddr.o)
 .debug_abbrev  0x00006b43      0x397 contiki-avr-atmega256rfr2.a(nbr-table.o)
 .debug_abbrev  0x00006eda      0x11b contiki-avr-atmega256rfr2.a(netstack.o)
 .debug_abbrev  0x00006ff5      0x343 contiki-avr-atmega256rfr2.a(packetbuf.o)
 .debug_abbrev  0x00007338      0x316 contiki-avr-atmega256rfr2.a(queuebuf.o)
 .debug_abbrev  0x0000764e      0x1b7 contiki-avr-atmega256rfr2.a(nullsec.o)
 .debug_abbrev  0x00007805       0xfe contiki-avr-atmega256rfr2.a(rtimer-arch.o)
 .debug_abbrev  0x00007903       0xd4 contiki-avr-atmega256rfr2.a(stimer.o)
 .debug_abbrev  0x000079d7      0x4ad contiki-avr-atmega256rfr2.a(sicslowpan.o)
 .debug_abbrev  0x00007e84      0x2cb contiki-avr-atmega256rfr2.a(framer-802154.o)
 .debug_abbrev  0x0000814f       0xef contiki-avr-atmega256rfr2.a(framer.o)
 .debug_abbrev  0x0000823e       0xc0 contiki-avr-atmega256rfr2.a(mac.o)
 .debug_abbrev  0x000082fe      0x1f1 contiki-avr-atmega256rfr2.a(frame802154.o)

.debug_line     0x00000000     0x7400
 *(.debug_line .debug_line.* .debug_line_end)
 .debug_line    0x00000000      0x1a4 example-servreg-client.co
 .debug_line    0x000001a4      0x2ca contiki-avr-atmega256rfr2.a(servreg-hack.o)
 .debug_line    0x0000046e      0x4d5 contiki-avr-atmega256rfr2.a(contiki-main.o)
 .debug_line    0x00000943      0x169 contiki-avr-atmega256rfr2.a(params.o)
 .debug_line    0x00000aac      0x2bd contiki-avr-atmega256rfr2.a(ssd1306.o)
 .debug_line    0x00000d69      0x1a0 contiki-avr-atmega256rfr2.a(clock.o)
 .debug_line    0x00000f09      0x163 contiki-avr-atmega256rfr2.a(rs232.o)
 .debug_line    0x0000106c       0xb2 contiki-avr-atmega256rfr2.a(watchdog.o)
 .debug_line    0x0000111e       0x78 contiki-avr-atmega256rfr2.a(random.o)
 .debug_line    0x00001196      0x5c6 contiki-avr-atmega256rfr2.a(rf230bb.o)
 .debug_line    0x0000175c      0x182 contiki-avr-atmega256rfr2.a(halbb.o)
 .debug_line    0x000018de       0x90 contiki-avr-atmega256rfr2.a(autostart.o)
 .debug_line    0x0000196e      0x1aa contiki-avr-atmega256rfr2.a(ctimer.o)
 .debug_line    0x00001b18       0xe5 contiki-avr-atmega256rfr2.a(energest.o)
 .debug_line    0x00001bfd      0x216 contiki-avr-atmega256rfr2.a(etimer.o)
 .debug_line    0x00001e13      0x1e4 contiki-avr-atmega256rfr2.a(process.o)
 .debug_line    0x00001ff7       0xa1 contiki-avr-atmega256rfr2.a(rtimer.o)
 .debug_line    0x00002098       0xd8 contiki-avr-atmega256rfr2.a(timer.o)
 .debug_line    0x00002170      0x159 contiki-avr-atmega256rfr2.a(list.o)
 .debug_line    0x000022c9       0xd6 contiki-avr-atmega256rfr2.a(memb.o)
 .debug_line    0x0000239f       0xba contiki-avr-atmega256rfr2.a(print-stats.o)
 .debug_line    0x00002459      0x6e1 contiki-avr-atmega256rfr2.a(uip6.o)
 .debug_line    0x00002b3a      0x430 contiki-avr-atmega256rfr2.a(uip-ds6.o)
 .debug_line    0x00002f6a      0x34e contiki-avr-atmega256rfr2.a(uip-ds6-nbr.o)
 .debug_line    0x000032b8      0x428 contiki-avr-atmega256rfr2.a(uip-ds6-route.o)
 .debug_line    0x000036e0      0x283 contiki-avr-atmega256rfr2.a(uip-icmp6.o)
 .debug_line    0x00003963      0x314 contiki-avr-atmega256rfr2.a(uip-nd6.o)
 .debug_line    0x00003c77      0x411 contiki-avr-atmega256rfr2.a(tcpip.o)
 .debug_line    0x00004088       0xb9 contiki-avr-atmega256rfr2.a(uip-debug.o)
 .debug_line    0x00004141      0x1bf contiki-avr-atmega256rfr2.a(uip-packetqueue)
 .debug_line    0x00004300       0xb9 contiki-avr-atmega256rfr2.a(uip-split.o)
 .debug_line    0x000043b9       0xdd contiki-avr-atmega256rfr2.a(uip-udp-packet.)
 .debug_line    0x00004496      0x2f7 contiki-avr-atmega256rfr2.a(rpl.o)
 .debug_line    0x0000478d      0x7e9 contiki-avr-atmega256rfr2.a(rpl-dag.o)
 .debug_line    0x00004f76      0x2d3 contiki-avr-atmega256rfr2.a(rpl-ext-header.)
 .debug_line    0x00005249      0x50f contiki-avr-atmega256rfr2.a(rpl-icmp6.o)
 .debug_line    0x00005758      0x24b contiki-avr-atmega256rfr2.a(rpl-mrhof.o)
 .debug_line    0x000059a3      0x2ab contiki-avr-atmega256rfr2.a(rpl-timers.o)
 .debug_line    0x00005c4e      0x12b contiki-avr-atmega256rfr2.a(nullmac.o)
 .debug_line    0x00005d79      0x1eb contiki-avr-atmega256rfr2.a(nullrdc.o)
 .debug_line    0x00005f64       0xcc contiki-avr-atmega256rfr2.a(linkaddr.o)
 .debug_line    0x00006030      0x275 contiki-avr-atmega256rfr2.a(nbr-table.o)
 .debug_line    0x000062a5       0xc8 contiki-avr-atmega256rfr2.a(netstack.o)
 .debug_line    0x0000636d      0x2a2 contiki-avr-atmega256rfr2.a(packetbuf.o)
 .debug_line    0x0000660f      0x1c1 contiki-avr-atmega256rfr2.a(queuebuf.o)
 .debug_line    0x000067d0      0x125 contiki-avr-atmega256rfr2.a(nullsec.o)
 .debug_line    0x000068f5       0xe1 contiki-avr-atmega256rfr2.a(rtimer-arch.o)
 .debug_line    0x000069d6       0xbb contiki-avr-atmega256rfr2.a(stimer.o)
 .debug_line    0x00006a91      0x549 contiki-avr-atmega256rfr2.a(sicslowpan.o)
 .debug_line    0x00006fda      0x177 contiki-avr-atmega256rfr2.a(framer-802154.o)
 .debug_line    0x00007151       0xd2 contiki-avr-atmega256rfr2.a(framer.o)
 .debug_line    0x00007223       0x52 contiki-avr-atmega256rfr2.a(mac.o)
 .debug_line    0x00007275      0x18b contiki-avr-atmega256rfr2.a(frame802154.o)

.debug_frame    0x00000000     0x3c40
 *(.debug_frame)
 .debug_frame   0x00000000       0x48 example-servreg-client.co
 .debug_frame   0x00000048      0x12c contiki-avr-atmega256rfr2.a(servreg-hack.o)
 .debug_frame   0x00000174      0x1b4 contiki-avr-atmega256rfr2.a(contiki-main.o)
 .debug_frame   0x00000328       0x7c contiki-avr-atmega256rfr2.a(params.o)
 .debug_frame   0x000003a4      0x21c contiki-avr-atmega256rfr2.a(ssd1306.o)
 .debug_frame   0x000005c0      0x11c contiki-avr-atmega256rfr2.a(clock.o)
 .debug_frame   0x000006dc      0x14c contiki-avr-atmega256rfr2.a(rs232.o)
 .debug_frame   0x00000828       0x64 contiki-avr-atmega256rfr2.a(watchdog.o)
 .debug_frame   0x0000088c       0x34 contiki-avr-atmega256rfr2.a(random.o)
 .debug_frame   0x000008c0      0x2e4 contiki-avr-atmega256rfr2.a(rf230bb.o)
 .debug_frame   0x00000ba4      0x190 contiki-avr-atmega256rfr2.a(halbb.o)
 .debug_frame   0x00000d34       0x4c contiki-avr-atmega256rfr2.a(autostart.o)
 .debug_frame   0x00000d80       0xf8 contiki-avr-atmega256rfr2.a(ctimer.o)
 .debug_frame   0x00000e78       0x88 contiki-avr-atmega256rfr2.a(energest.o)
 .debug_frame   0x00000f00      0x150 contiki-avr-atmega256rfr2.a(etimer.o)
 .debug_frame   0x00001050      0x148 contiki-avr-atmega256rfr2.a(process.o)
 .debug_frame   0x00001198       0x6c contiki-avr-atmega256rfr2.a(rtimer.o)
 .debug_frame   0x00001204       0x94 contiki-avr-atmega256rfr2.a(timer.o)
 .debug_frame   0x00001298       0xfc contiki-avr-atmega256rfr2.a(list.o)
 .debug_frame   0x00001394       0x70 contiki-avr-atmega256rfr2.a(memb.o)
 .debug_frame   0x00001404       0x84 contiki-avr-atmega256rfr2.a(print-stats.o)
 .debug_frame   0x00001488      0x1bc contiki-avr-atmega256rfr2.a(uip6.o)
 .debug_frame   0x00001644      0x37c contiki-avr-atmega256rfr2.a(uip-ds6.o)
 .debug_frame   0x000019c0      0x1c0 contiki-avr-atmega256rfr2.a(uip-ds6-nbr.o)
 .debug_frame   0x00001b80      0x25c contiki-avr-atmega256rfr2.a(uip-ds6-route.o)
 .debug_frame   0x00001ddc      0x134 contiki-avr-atmega256rfr2.a(uip-icmp6.o)
 .debug_frame   0x00001f10       0xb0 contiki-avr-atmega256rfr2.a(uip-nd6.o)
 .debug_frame   0x00001fc0      0x1cc contiki-avr-atmega256rfr2.a(tcpip.o)
 .debug_frame   0x0000218c       0xe4 contiki-avr-atmega256rfr2.a(uip-debug.o)
 .debug_frame   0x00002270       0xb8 contiki-avr-atmega256rfr2.a(uip-packetqueue)
 .debug_frame   0x00002328       0x38 contiki-avr-atmega256rfr2.a(uip-split.o)
 .debug_frame   0x00002360       0x64 contiki-avr-atmega256rfr2.a(uip-udp-packet.)
 .debug_frame   0x000023c4      0x134 contiki-avr-atmega256rfr2.a(rpl.o)
 .debug_frame   0x000024f8      0x5cc contiki-avr-atmega256rfr2.a(rpl-dag.o)
 .debug_frame   0x00002ac4       0xc4 contiki-avr-atmega256rfr2.a(rpl-ext-header.)
 .debug_frame   0x00002b88      0x24c contiki-avr-atmega256rfr2.a(rpl-icmp6.o)
 .debug_frame   0x00002dd4       0xe0 contiki-avr-atmega256rfr2.a(rpl-mrhof.o)
 .debug_frame   0x00002eb4      0x144 contiki-avr-atmega256rfr2.a(rpl-timers.o)
 .debug_frame   0x00002ff8       0x74 contiki-avr-atmega256rfr2.a(nullmac.o)
 .debug_frame   0x0000306c       0xdc contiki-avr-atmega256rfr2.a(nullrdc.o)
 .debug_frame   0x00003148       0x44 contiki-avr-atmega256rfr2.a(linkaddr.o)
 .debug_frame   0x0000318c      0x1d4 contiki-avr-atmega256rfr2.a(nbr-table.o)
 .debug_frame   0x00003360       0x24 contiki-avr-atmega256rfr2.a(netstack.o)
 .debug_frame   0x00003384      0x23c contiki-avr-atmega256rfr2.a(packetbuf.o)
 .debug_frame   0x000035c0      0x120 contiki-avr-atmega256rfr2.a(queuebuf.o)
 .debug_frame   0x000036e0       0x78 contiki-avr-atmega256rfr2.a(nullsec.o)
 .debug_frame   0x00003758       0x8c contiki-avr-atmega256rfr2.a(rtimer-arch.o)
 .debug_frame   0x000037e4       0xe8 contiki-avr-atmega256rfr2.a(stimer.o)
 .debug_frame   0x000038cc      0x190 contiki-avr-atmega256rfr2.a(sicslowpan.o)
 .debug_frame   0x00003a5c       0xa0 contiki-avr-atmega256rfr2.a(framer-802154.o)
 .debug_frame   0x00003afc       0x30 contiki-avr-atmega256rfr2.a(framer.o)
 .debug_frame   0x00003b2c       0x24 contiki-avr-atmega256rfr2.a(mac.o)
 .debug_frame   0x00003b50       0xf0 contiki-avr-atmega256rfr2.a(frame802154.o)

.debug_str      0x00000000     0x5177
 *(.debug_str)
 .debug_str     0x00000000      0x450 example-servreg-client.co
                                0x4ff (size before relaxing)
 .debug_str     0x00000450      0x2c2 contiki-avr-atmega256rfr2.a(servreg-hack.o)
                                0x6d3 (size before relaxing)
 .debug_str     0x00000712      0x618 contiki-avr-atmega256rfr2.a(contiki-main.o)
                                0xa99 (size before relaxing)
 .debug_str     0x00000d2a      0x191 contiki-avr-atmega256rfr2.a(params.o)
                                0x455 (size before relaxing)
 .debug_str     0x00000ebb      0x287 contiki-avr-atmega256rfr2.a(ssd1306.o)
                                0x3d7 (size before relaxing)
 .debug_str     0x00001142      0x105 contiki-avr-atmega256rfr2.a(clock.o)
                                0x25d (size before relaxing)
 .debug_str     0x00001247       0xe3 contiki-avr-atmega256rfr2.a(rs232.o)
                                0x34e (size before relaxing)
 .debug_str     0x0000132a       0x68 contiki-avr-atmega256rfr2.a(watchdog.o)
                                0x16c (size before relaxing)
 .debug_str     0x00001392       0x23 contiki-avr-atmega256rfr2.a(random.o)
                                0x146 (size before relaxing)
 .debug_str     0x000013b5      0x9d9 contiki-avr-atmega256rfr2.a(rf230bb.o)
                                0xf39 (size before relaxing)
 .debug_str     0x00001d8e       0xef contiki-avr-atmega256rfr2.a(halbb.o)
                                0x2ef (size before relaxing)
 .debug_str     0x00001e7d       0x37 contiki-avr-atmega256rfr2.a(autostart.o)
                                0x1b7 (size before relaxing)
 .debug_str     0x00001eb4       0xbc contiki-avr-atmega256rfr2.a(ctimer.o)
                                0x425 (size before relaxing)
 .debug_str     0x00001f70       0x9b contiki-avr-atmega256rfr2.a(energest.o)
                                0x341 (size before relaxing)
 .debug_str     0x0000200b       0xdb contiki-avr-atmega256rfr2.a(etimer.o)
                                0x348 (size before relaxing)
 .debug_str     0x000020e6      0x114 contiki-avr-atmega256rfr2.a(process.o)
                                0x2db (size before relaxing)
 .debug_str     0x000021fa       0xda contiki-avr-atmega256rfr2.a(rtimer.o)
                                0x338 (size before relaxing)
 .debug_str     0x000022d4       0x17 contiki-avr-atmega256rfr2.a(timer.o)
                                0x191 (size before relaxing)
 .debug_str     0x000022eb       0x66 contiki-avr-atmega256rfr2.a(list.o)
                                0x14f (size before relaxing)
 .debug_str     0x00002351       0x44 contiki-avr-atmega256rfr2.a(memb.o)
                                0x187 (size before relaxing)
 .debug_str     0x00002395       0x30 contiki-avr-atmega256rfr2.a(print-stats.o)
                                0x2c0 (size before relaxing)
 .debug_str     0x000023c5      0x541 contiki-avr-atmega256rfr2.a(uip6.o)
                                0xa56 (size before relaxing)
 .debug_str     0x00002906      0x2e1 contiki-avr-atmega256rfr2.a(uip-ds6.o)
                                0x828 (size before relaxing)
 .debug_str     0x00002be7      0x2e4 contiki-avr-atmega256rfr2.a(uip-ds6-nbr.o)
                                0xbdb (size before relaxing)
 .debug_str     0x00002ecb      0x326 contiki-avr-atmega256rfr2.a(uip-ds6-route.o)
                                0xaae (size before relaxing)
 .debug_str     0x000031f1      0x216 contiki-avr-atmega256rfr2.a(uip-icmp6.o)
                                0x726 (size before relaxing)
 .debug_str     0x00003407      0x124 contiki-avr-atmega256rfr2.a(uip-nd6.o)
                                0x839 (size before relaxing)
 .debug_str     0x0000352b      0x405 contiki-avr-atmega256rfr2.a(tcpip.o)
                                0xe9a (size before relaxing)
 .debug_str     0x00003930       0x35 contiki-avr-atmega256rfr2.a(uip-debug.o)
                                0x1c2 (size before relaxing)
 .debug_str     0x00003965       0x6f contiki-avr-atmega256rfr2.a(uip-packetqueue)
                                0x476 (size before relaxing)
 .debug_str     0x000039d4       0x2f contiki-avr-atmega256rfr2.a(uip-split.o)
                                0x25e (size before relaxing)
 .debug_str     0x00003a03       0x57 contiki-avr-atmega256rfr2.a(uip-udp-packet.)
                                0x29a (size before relaxing)
 .debug_str     0x00003a5a      0x18d contiki-avr-atmega256rfr2.a(rpl.o)
                                0xa47 (size before relaxing)
 .debug_str     0x00003be7      0x475 contiki-avr-atmega256rfr2.a(rpl-dag.o)
                                0xcf5 (size before relaxing)
 .debug_str     0x0000405c       0xa7 contiki-avr-atmega256rfr2.a(rpl-ext-header.)
                                0xb11 (size before relaxing)
 .debug_str     0x00004103      0x11d contiki-avr-atmega256rfr2.a(rpl-icmp6.o)
                                0xfa9 (size before relaxing)
 .debug_str     0x00004220       0xf9 contiki-avr-atmega256rfr2.a(rpl-mrhof.o)
                                0x7ce (size before relaxing)
 .debug_str     0x00004319       0x9d contiki-avr-atmega256rfr2.a(rpl-timers.o)
                                0x863 (size before relaxing)
 .debug_str     0x000043b6       0x86 contiki-avr-atmega256rfr2.a(nullmac.o)
                                0x38a (size before relaxing)
 .debug_str     0x0000443c      0x109 contiki-avr-atmega256rfr2.a(nullrdc.o)
                                0x94c (size before relaxing)
 .debug_str     0x00004545       0x34 contiki-avr-atmega256rfr2.a(linkaddr.o)
                                0x1a6 (size before relaxing)
 .debug_str     0x00004579      0x1a6 contiki-avr-atmega256rfr2.a(nbr-table.o)
                                0x5a6 (size before relaxing)
 .debug_str     0x0000471f       0x3b contiki-avr-atmega256rfr2.a(netstack.o)
                                0x309 (size before relaxing)
 .debug_str     0x0000475a      0x18c contiki-avr-atmega256rfr2.a(packetbuf.o)
                                0x849 (size before relaxing)
 .debug_str     0x000048e6      0x196 contiki-avr-atmega256rfr2.a(queuebuf.o)
                                0x8cb (size before relaxing)
 .debug_str     0x00004a7c       0x2f contiki-avr-atmega256rfr2.a(nullsec.o)
                                0x682 (size before relaxing)
 .debug_str     0x00004aab       0x2a contiki-avr-atmega256rfr2.a(rtimer-arch.o)
                                0x313 (size before relaxing)
 .debug_str     0x00004ad5       0x43 contiki-avr-atmega256rfr2.a(stimer.o)
                                0x198 (size before relaxing)
 .debug_str     0x00004b18      0x35e contiki-avr-atmega256rfr2.a(sicslowpan.o)
                                0xd8a (size before relaxing)
 .debug_str     0x00004e76      0x228 contiki-avr-atmega256rfr2.a(framer-802154.o)
                                0x90d (size before relaxing)
 .debug_str     0x0000509e       0x3f contiki-avr-atmega256rfr2.a(framer.o)
                                0x22b (size before relaxing)
 .debug_str     0x000050dd       0x20 contiki-avr-atmega256rfr2.a(mac.o)
                                0x1b1 (size before relaxing)
 .debug_str     0x000050fd       0x7a contiki-avr-atmega256rfr2.a(frame802154.o)
                                0x3a8 (size before relaxing)

.debug_loc      0x00000000    0x11876
 *(.debug_loc)
 .debug_loc     0x00000000      0x197 example-servreg-client.co
 .debug_loc     0x00000197      0x799 contiki-avr-atmega256rfr2.a(servreg-hack.o)
 .debug_loc     0x00000930      0x6a0 contiki-avr-atmega256rfr2.a(contiki-main.o)
 .debug_loc     0x00000fd0      0x223 contiki-avr-atmega256rfr2.a(params.o)
 .debug_loc     0x000011f3      0x357 contiki-avr-atmega256rfr2.a(ssd1306.o)
 .debug_loc     0x0000154a      0x345 contiki-avr-atmega256rfr2.a(clock.o)
 .debug_loc     0x0000188f      0x3fc contiki-avr-atmega256rfr2.a(rs232.o)
 .debug_loc     0x00001c8b       0x26 contiki-avr-atmega256rfr2.a(random.o)
 .debug_loc     0x00001cb1      0xb9c contiki-avr-atmega256rfr2.a(rf230bb.o)
 .debug_loc     0x0000284d      0x493 contiki-avr-atmega256rfr2.a(halbb.o)
 .debug_loc     0x00002ce0       0xaa contiki-avr-atmega256rfr2.a(autostart.o)
 .debug_loc     0x00002d8a      0x5b9 contiki-avr-atmega256rfr2.a(ctimer.o)
 .debug_loc     0x00003343      0x158 contiki-avr-atmega256rfr2.a(energest.o)
 .debug_loc     0x0000349b      0x5bb contiki-avr-atmega256rfr2.a(etimer.o)
 .debug_loc     0x00003a56      0x5da contiki-avr-atmega256rfr2.a(process.o)
 .debug_loc     0x00004030      0x246 contiki-avr-atmega256rfr2.a(rtimer.o)
 .debug_loc     0x00004276      0x20e contiki-avr-atmega256rfr2.a(timer.o)
 .debug_loc     0x00004484      0x472 contiki-avr-atmega256rfr2.a(list.o)
 .debug_loc     0x000048f6      0x1eb contiki-avr-atmega256rfr2.a(memb.o)
 .debug_loc     0x00004ae1      0x117 contiki-avr-atmega256rfr2.a(print-stats.o)
 .debug_loc     0x00004bf8      0x843 contiki-avr-atmega256rfr2.a(uip6.o)
 .debug_loc     0x0000543b      0xd58 contiki-avr-atmega256rfr2.a(uip-ds6.o)
 .debug_loc     0x00006193      0x7bb contiki-avr-atmega256rfr2.a(uip-ds6-nbr.o)
 .debug_loc     0x0000694e      0xdda contiki-avr-atmega256rfr2.a(uip-ds6-route.o)
 .debug_loc     0x00007728      0x593 contiki-avr-atmega256rfr2.a(uip-icmp6.o)
 .debug_loc     0x00007cbb      0x385 contiki-avr-atmega256rfr2.a(uip-nd6.o)
 .debug_loc     0x00008040      0xbbc contiki-avr-atmega256rfr2.a(tcpip.o)
 .debug_loc     0x00008bfc      0x351 contiki-avr-atmega256rfr2.a(uip-debug.o)
 .debug_loc     0x00008f4d      0x282 contiki-avr-atmega256rfr2.a(uip-packetqueue)
 .debug_loc     0x000091cf       0xa1 contiki-avr-atmega256rfr2.a(uip-split.o)
 .debug_loc     0x00009270      0x1ed contiki-avr-atmega256rfr2.a(uip-udp-packet.)
 .debug_loc     0x0000945d      0x60b contiki-avr-atmega256rfr2.a(rpl.o)
 .debug_loc     0x00009a68     0x24b7 contiki-avr-atmega256rfr2.a(rpl-dag.o)
 .debug_loc     0x0000bf1f      0x386 contiki-avr-atmega256rfr2.a(rpl-ext-header.)
 .debug_loc     0x0000c2a5     0x113a contiki-avr-atmega256rfr2.a(rpl-icmp6.o)
 .debug_loc     0x0000d3df      0x562 contiki-avr-atmega256rfr2.a(rpl-mrhof.o)
 .debug_loc     0x0000d941      0x83d contiki-avr-atmega256rfr2.a(rpl-timers.o)
 .debug_loc     0x0000e17e       0x72 contiki-avr-atmega256rfr2.a(nullmac.o)
 .debug_loc     0x0000e1f0      0x306 contiki-avr-atmega256rfr2.a(nullrdc.o)
 .debug_loc     0x0000e4f6       0x82 contiki-avr-atmega256rfr2.a(linkaddr.o)
 .debug_loc     0x0000e578      0xda0 contiki-avr-atmega256rfr2.a(nbr-table.o)
 .debug_loc     0x0000f318      0x544 contiki-avr-atmega256rfr2.a(packetbuf.o)
 .debug_loc     0x0000f85c      0x48a contiki-avr-atmega256rfr2.a(queuebuf.o)
 .debug_loc     0x0000fce6       0xfb contiki-avr-atmega256rfr2.a(nullsec.o)
 .debug_loc     0x0000fde1       0xfd contiki-avr-atmega256rfr2.a(rtimer-arch.o)
 .debug_loc     0x0000fede      0x2d6 contiki-avr-atmega256rfr2.a(stimer.o)
 .debug_loc     0x000101b4      0xab1 contiki-avr-atmega256rfr2.a(sicslowpan.o)
 .debug_loc     0x00010c65      0x1aa contiki-avr-atmega256rfr2.a(framer-802154.o)
 .debug_loc     0x00010e0f       0x57 contiki-avr-atmega256rfr2.a(framer.o)
 .debug_loc     0x00010e66      0x108 contiki-avr-atmega256rfr2.a(mac.o)
 .debug_loc     0x00010f6e      0x908 contiki-avr-atmega256rfr2.a(frame802154.o)

.debug_macinfo
 *(.debug_macinfo)

.debug_weaknames
 *(.debug_weaknames)

.debug_funcnames
 *(.debug_funcnames)

.debug_typenames
 *(.debug_typenames)

.debug_varnames
 *(.debug_varnames)

.debug_pubtypes
 *(.debug_pubtypes)

.debug_ranges   0x00000000     0x1350
 *(.debug_ranges)
 .debug_ranges  0x00000000       0x10 example-servreg-client.co
 .debug_ranges  0x00000010       0x60 contiki-avr-atmega256rfr2.a(servreg-hack.o)
 .debug_ranges  0x00000070       0x60 contiki-avr-atmega256rfr2.a(contiki-main.o)
 .debug_ranges  0x000000d0       0x30 contiki-avr-atmega256rfr2.a(params.o)
 .debug_ranges  0x00000100       0xe0 contiki-avr-atmega256rfr2.a(ssd1306.o)
 .debug_ranges  0x000001e0       0x50 contiki-avr-atmega256rfr2.a(clock.o)
 .debug_ranges  0x00000230       0x50 contiki-avr-atmega256rfr2.a(rs232.o)
 .debug_ranges  0x00000280       0x30 contiki-avr-atmega256rfr2.a(watchdog.o)
 .debug_ranges  0x000002b0       0x18 contiki-avr-atmega256rfr2.a(random.o)
 .debug_ranges  0x000002c8      0x138 contiki-avr-atmega256rfr2.a(rf230bb.o)
 .debug_ranges  0x00000400       0x70 contiki-avr-atmega256rfr2.a(halbb.o)
 .debug_ranges  0x00000470       0x18 contiki-avr-atmega256rfr2.a(autostart.o)
 .debug_ranges  0x00000488       0x40 contiki-avr-atmega256rfr2.a(ctimer.o)
 .debug_ranges  0x000004c8       0x30 contiki-avr-atmega256rfr2.a(energest.o)
 .debug_ranges  0x000004f8       0xa8 contiki-avr-atmega256rfr2.a(etimer.o)
 .debug_ranges  0x000005a0       0x78 contiki-avr-atmega256rfr2.a(process.o)
 .debug_ranges  0x00000618       0x28 contiki-avr-atmega256rfr2.a(rtimer.o)
 .debug_ranges  0x00000640       0x30 contiki-avr-atmega256rfr2.a(timer.o)
 .debug_ranges  0x00000670       0x68 contiki-avr-atmega256rfr2.a(list.o)
 .debug_ranges  0x000006d8       0x30 contiki-avr-atmega256rfr2.a(memb.o)
 .debug_ranges  0x00000708       0x10 contiki-avr-atmega256rfr2.a(print-stats.o)
 .debug_ranges  0x00000718       0xa0 contiki-avr-atmega256rfr2.a(uip6.o)
 .debug_ranges  0x000007b8       0xb8 contiki-avr-atmega256rfr2.a(uip-ds6.o)
 .debug_ranges  0x00000870       0x70 contiki-avr-atmega256rfr2.a(uip-ds6-nbr.o)
 .debug_ranges  0x000008e0       0xd0 contiki-avr-atmega256rfr2.a(uip-ds6-route.o)
 .debug_ranges  0x000009b0       0x50 contiki-avr-atmega256rfr2.a(uip-icmp6.o)
 .debug_ranges  0x00000a00       0x60 contiki-avr-atmega256rfr2.a(uip-nd6.o)
 .debug_ranges  0x00000a60       0xe0 contiki-avr-atmega256rfr2.a(tcpip.o)
 .debug_ranges  0x00000b40       0x18 contiki-avr-atmega256rfr2.a(uip-debug.o)
 .debug_ranges  0x00000b58       0x40 contiki-avr-atmega256rfr2.a(uip-packetqueue)
 .debug_ranges  0x00000b98       0x10 contiki-avr-atmega256rfr2.a(uip-split.o)
 .debug_ranges  0x00000ba8       0x18 contiki-avr-atmega256rfr2.a(uip-udp-packet.)
 .debug_ranges  0x00000bc0       0x50 contiki-avr-atmega256rfr2.a(rpl.o)
 .debug_ranges  0x00000c10      0x168 contiki-avr-atmega256rfr2.a(rpl-dag.o)
 .debug_ranges  0x00000d78       0x38 contiki-avr-atmega256rfr2.a(rpl-ext-header.)
 .debug_ranges  0x00000db0       0x90 contiki-avr-atmega256rfr2.a(rpl-icmp6.o)
 .debug_ranges  0x00000e40       0x38 contiki-avr-atmega256rfr2.a(rpl-mrhof.o)
 .debug_ranges  0x00000e78       0xc0 contiki-avr-atmega256rfr2.a(rpl-timers.o)
 .debug_ranges  0x00000f38       0x38 contiki-avr-atmega256rfr2.a(nullmac.o)
 .debug_ranges  0x00000f70       0x48 contiki-avr-atmega256rfr2.a(nullrdc.o)
 .debug_ranges  0x00000fb8       0x20 contiki-avr-atmega256rfr2.a(linkaddr.o)
 .debug_ranges  0x00000fd8       0x98 contiki-avr-atmega256rfr2.a(nbr-table.o)
 .debug_ranges  0x00001070       0x10 contiki-avr-atmega256rfr2.a(netstack.o)
 .debug_ranges  0x00001080       0xd8 contiki-avr-atmega256rfr2.a(packetbuf.o)
 .debug_ranges  0x00001158       0x80 contiki-avr-atmega256rfr2.a(queuebuf.o)
 .debug_ranges  0x000011d8       0x30 contiki-avr-atmega256rfr2.a(nullsec.o)
 .debug_ranges  0x00001208       0x20 contiki-avr-atmega256rfr2.a(rtimer-arch.o)
 .debug_ranges  0x00001228       0x38 contiki-avr-atmega256rfr2.a(stimer.o)
 .debug_ranges  0x00001260       0x80 contiki-avr-atmega256rfr2.a(sicslowpan.o)
 .debug_ranges  0x000012e0       0x28 contiki-avr-atmega256rfr2.a(framer-802154.o)
 .debug_ranges  0x00001308       0x10 contiki-avr-atmega256rfr2.a(framer.o)
 .debug_ranges  0x00001318       0x10 contiki-avr-atmega256rfr2.a(mac.o)
 .debug_ranges  0x00001328       0x28 contiki-avr-atmega256rfr2.a(frame802154.o)

.debug_macro
 *(.debug_macro)
OUTPUT(example-servreg-client.avr-atmega256rfr2 elf32-avr)
LOAD linker stubs

.bootloader     0x0001f800        0x0
